ccopy_reg
_reconstructor
p0
(cmatplotlib.figure
Figure
p1
c__builtin__
object
p2
Ntp3
Rp4
(dp5
S'_label'
p6
V
p7
sS'_visible'
p8
I01
sS'figure'
p9
NsS'stale_callback'
p10
NsS'_rasterized'
p11
NsS'texts'
p12
(lp13
sS'_hold'
p14
I01
sS'artists'
p15
(lp16
sS'_path_effects'
p17
(lp18
sS'frameon'
p19
I01
sS'_clipon'
p20
I01
sV__mpl_version__
p21
S'1.5.1'
p22
sS'_clippath'
p23
NsS'_contains'
p24
NsS'_tight_parameters'
p25
(dp26
sS'_mouseover'
p27
I00
sS'_animated'
p28
I00
sS'_propobservers'
p29
(dp30
sS'eventson'
p31
I00
sS'_picker'
p32
NsS'_remove_method'
p33
NsS'figurePatch'
p34
g0
(cmatplotlib.patches
Rectangle
p35
g2
Ntp36
Rp37
(dp38
g6
g7
sS'_width'
p39
F1.0
sS'_fill'
p40
I01
sg9
g4
sg8
I01
sg10
NsS'_agg_filter'
p41
Nsg17
g18
sS'_gid'
p42
Nsg20
I01
sS'_combined_transform'
p43
g0
(cmatplotlib.transforms
IdentityTransform
p44
g2
Ntp45
Rp46
(dp47
S'_invalid'
p48
I1
sS'_inverted'
p49
NsS'_shorthand_name'
p50
g7
sS'_parents'
p51
(dp52
sbsS'_edgecolor'
p53
(F1.0
F1.0
F1.0
F1.0
tp54
sg23
NsS'_y'
p55
F0.0
sS'_x'
p56
F0.0
sS'_sketch'
p57
Nsg24
Nsg11
Nsg27
I00
sg28
I00
sg29
(dp58
sS'_rect_transform'
p59
g0
(cmatplotlib.transforms
CompositeGenericTransform
p60
g2
Ntp61
Rp62
(dp63
g48
I1
sS'input_dims'
p64
I2
sS'_a'
p65
g0
(cmatplotlib.transforms
BboxTransformTo
p66
g2
Ntp67
Rp68
(dp69
g48
I0
sS'_mtx'
p70
cnumpy.core.multiarray
_reconstruct
p71
(cnumpy
ndarray
p72
(I0
tp73
S'b'
p74
tp75
Rp76
(I1
(I3
I3
tp77
cnumpy
dtype
p78
(S'f8'
p79
I0
I1
tp80
Rp81
(I3
S'<'
p82
NNNI-1
I-1
I0
tp83
bI00
S'\x00\x00\x00\x00\x00\x00\xf0?\x00\x00\x00\x00\x00\x00\x00\x00\x00\x00\x00\x00\x00\x00\x00\x00\x00\x00\x00\x00\x00\x00\x00\x00\x00\x00\x00\x00\x00\x00\xf0?\x00\x00\x00\x00\x00\x00\x00\x00\x00\x00\x00\x00\x00\x00\x00\x00\x00\x00\x00\x00\x00\x00\x00\x00\x00\x00\x00\x00\x00\x00\xf0?'
p84
tp85
bsg49
NsS'_boxout'
p86
g0
(cmatplotlib.transforms
Bbox
p87
g2
Ntp88
Rp89
(dp90
g48
I0
sS'_minpos'
p91
g71
(g72
(I0
tp92
g74
tp93
Rp94
(I1
(I2
tp95
g81
I00
S'H\xaf\xbc\x9a\xf2\xd7z>H\xaf\xbc\x9a\xf2\xd7z>'
p96
tp97
bsg51
(dp98
I139977455142864
g68
ssS'_points_orig'
p99
g71
(g72
(I0
tp100
g74
tp101
Rp102
(I1
(I2
I2
tp103
g81
I00
S'\x00\x00\x00\x00\x00\x00\x00\x00\x00\x00\x00\x00\x00\x00\x00\x00\x00\x00\x00\x00\x00\x00\xf0?\x00\x00\x00\x00\x00\x00\xf0?'
p104
tp105
bsS'_points'
p106
g71
(g72
(I0
tp107
g74
tp108
Rp109
(I1
(I2
I2
tp110
g81
I00
S'\x00\x00\x00\x00\x00\x00\x00\x00\x00\x00\x00\x00\x00\x00\x00\x00\x00\x00\x00\x00\x00\x00\xf0?\x00\x00\x00\x00\x00\x00\xf0?'
p111
tp112
bsS'_ignore'
p113
I01
sg50
g7
sbsg51
(dp114
I139977455553936
g62
ssg50
g7
sbsS'output_dims'
p115
I2
sS'_b'
p116
g0
(cmatplotlib.transforms
Affine2D
p117
g2
Ntp118
Rp119
(dp120
g48
I0
sg49
Nsg70
g71
(g72
(I0
tp121
g74
tp122
Rp123
(I1
(I3
I3
tp124
g81
I00
S'\x00\x00\x00\x00\x00\x00\xf0?\x00\x00\x00\x00\x00\x00\x00\x00\x00\x00\x00\x00\x00\x00\x00\x00\x00\x00\x00\x00\x00\x00\x00\x00\x00\x00\x00\x00\x00\x00\xf0?\x00\x00\x00\x00\x00\x00\x00\x00\x00\x00\x00\x00\x00\x00\x00\x00\x00\x00\x00\x00\x00\x00\x00\x00\x00\x00\x00\x00\x00\x00\xf0?'
p125
tp126
bsg50
g7
sg51
(dp127
I139977455553936
g62
ssbsg51
(dp128
sg50
g7
sbsg31
I00
sS'_hatch'
p129
NsS'_stale'
p130
I01
sS'_linewidth'
p131
F0.0
sS'clipbox'
p132
NsS'_height'
p133
F1.0
sg32
NsS'_antialiased'
p134
I00
sS'_original_facecolor'
p135
(F0.75
F0.75
F0.75
F1.0
tp136
sS'_snap'
p137
NsS'_facecolor'
p138
g136
sS'_joinstyle'
p139
Vmiter
p140
sS'_linestyle'
p141
Vsolid
p142
sS'_original_edgecolor'
p143
g54
sS'_oid'
p144
I0
sS'_transformSet'
p145
I01
sS'_angle'
p146
F0.0
sS'_alpha'
p147
NsS'_transform'
p148
g0
(g66
g2
Ntp149
Rp150
(dp151
g48
I2
sg70
g71
(g72
(I0
tp152
g74
tp153
Rp154
(I1
(I3
I3
tp155
g81
I00
S'\x00\x00\x00\x00\x00\x00\x89@\x00\x00\x00\x00\x00\x00\x00\x00\x00\x00\x00\x00\x00\x00\x00\x00\x00\x00\x00\x00\x00\x00\x00\x00\x00\x00\x00\x00\x00\xc0\x82@\x00\x00\x00\x00\x00\x00\x00\x00\x00\x00\x00\x00\x00\x00\x00\x00\x00\x00\x00\x00\x00\x00\x00\x00\x00\x00\x00\x00\x00\x00\xf0?'
p156
tp157
bsg49
Nsg86
g0
(cmatplotlib.transforms
TransformedBbox
p158
g2
Ntp159
Rp160
(dp161
g48
I2
sS'_bbox'
p162
g0
(g87
g2
Ntp163
Rp164
(dp165
g48
I0
sg91
g71
(g72
(I0
tp166
g74
tp167
Rp168
(I1
(I2
tp169
g81
I00
S'H\xaf\xbc\x9a\xf2\xd7z>H\xaf\xbc\x9a\xf2\xd7z>'
p170
tp171
bsg51
(dp172
I139977455599056
g160
ssg99
g71
(g72
(I0
tp173
g74
tp174
Rp175
(I1
(I2
I2
tp176
g81
I00
S'\x00\x00\x00\x00\x00\x00\x00\x00\x00\x00\x00\x00\x00\x00\x00\x00\x00\x00\x00\x00\x00\x00 @\x00\x00\x00\x00\x00\x00\x18@'
p177
tp178
bsg106
g71
(g72
(I0
tp179
g74
tp180
Rp181
(I1
(I2
I2
tp182
g81
I00
S'\x00\x00\x00\x00\x00\x00\x00\x00\x00\x00\x00\x00\x00\x00\x00\x00\x00\x00\x00\x00\x00\x00 @\x00\x00\x00\x00\x00\x00\x18@'
p183
tp184
bsg113
I01
sg50
g7
sbsg148
g0
(g117
g2
Ntp185
Rp186
(dp187
g48
I2
sg49
Nsg70
g71
(g72
(I0
tp188
g74
tp189
Rp190
(I1
(I3
I3
tp191
g81
I00
S'\x00\x00\x00\x00\x00\x00T@\x00\x00\x00\x00\x00\x00\x00\x00\x00\x00\x00\x00\x00\x00\x00\x00\x00\x00\x00\x00\x00\x00\x00\x00\x00\x00\x00\x00\x00\x00T@\x00\x00\x00\x00\x00\x00\x00\x00\x00\x00\x00\x00\x00\x00\x00\x00\x00\x00\x00\x00\x00\x00\x00\x00\x00\x00\x00\x00\x00\x00\xf0?'
p192
tp193
bsg50
g7
sg51
(dp194
I139977455365648
g0
(cmatplotlib.transforms
ScaledTranslation
p195
g2
Ntp196
Rp197
(dp198
g48
I2
sg70
g71
(g72
(I0
tp199
g74
tp200
Rp201
(I1
(I3
I3
tp202
g81
I00
S'\x00\x00\x00\x00\x00\x00\xf0?\x00\x00\x00\x00\x00\x00\x00\x00\x00\x00\x00\x00\x00\x00\x00\x00\x00\x00\x00\x00\x00\x00\x00\x00\x00\x00\x00\x00\x00\x00\xf0?\x8e\xe38\x8e\xe38\x16\xc0\x00\x00\x00\x00\x00\x00\x00\x00\x00\x00\x00\x00\x00\x00\x00\x00\x00\x00\x00\x00\x00\x00\xf0?'
p203
tp204
bsS'_scale_trans'
p205
g186
sg49
NsS'_t'
p206
(I0
F-0.05555555555555555
tp207
sg50
g7
sg51
(dp208
I139977455365584
g0
(g60
g2
Ntp209
Rp210
(dp211
g48
I2
sg64
I2
sg65
g0
(cmatplotlib.transforms
BlendedGenericTransform
p212
g2
Ntp213
Rp214
(dp215
g48
I2
sg55
g0
(g66
g2
Ntp216
Rp217
(dp218
g48
I2
sg70
g71
(g72
(I0
tp219
g74
tp220
Rp221
(I1
(I3
I3
tp222
g81
I00
S'\x00\x00\x00\x00\x00`\x83@\x00\x00\x00\x00\x00\x00\x00\x00\x00\x00\x00\x00\x00\x00Y@\x00\x00\x00\x00\x00\x00\x00\x00\x00\x00\x00\x00\x00\x00~@\xfe\xff\xff\xff\xff\xffM@\x00\x00\x00\x00\x00\x00\x00\x00\x00\x00\x00\x00\x00\x00\x00\x00\x00\x00\x00\x00\x00\x00\xf0?'
p223
tp224
bsg49
g0
(g117
g2
Ntp225
Rp226
(dp227
g48
I0
sg49
Nsg70
g71
(g72
(I0
tp228
g74
tp229
Rp230
(I1
(I3
I3
tp231
g81
I00
S'm\x1a\xd0\xa6\x01mZ?\x00\x00\x00\x00\x00\x00\x00\x00\xa5\x94RJ)\xa5\xc4\xbf\x00\x00\x00\x00\x00\x00\x00\x00\x11\x11\x11\x11\x11\x11a?\xfe\xff\xff\xff\xff\xff\xbf\xbf\x00\x00\x00\x00\x00\x00\x00\x00\x00\x00\x00\x00\x00\x00\x00\x00\x00\x00\x00\x00\x00\x00\xf0?'
p232
tp233
bsg50
g7
sg51
(dp234
sbsg86
g0
(g158
g2
Ntp235
Rp236
(dp237
g48
I2
sg162
g0
(g87
g2
Ntp238
Rp239
(dp240
g48
I0
sg91
g71
(g72
(I0
tp241
g74
tp242
Rp243
(I1
(I2
tp244
g81
I00
S'H\xaf\xbc\x9a\xf2\xd7z>H\xaf\xbc\x9a\xf2\xd7z>'
p245
tp246
bsg51
(dp247
I139977455655888
g236
ssg99
g71
(g72
(I0
tp248
g74
tp249
Rp250
(I1
(I2
I2
tp251
g81
I00
S'\x00\x00\x00\x00\x00\x00\xc0?\x98\x99\x99\x99\x99\x99\xb9?\xcd\xcc\xcc\xcc\xcc\xcc\xec?\xcd\xcc\xcc\xcc\xcc\xcc\xec?'
p252
tp253
bsg106
g71
(g72
(I0
tp254
g74
tp255
Rp256
(I1
(I2
I2
tp257
g81
I00
S'\x00\x00\x00\x00\x00\x00\xc0?\x98\x99\x99\x99\x99\x99\xb9?\xcd\xcc\xcc\xcc\xcc\xcc\xec?\xcd\xcc\xcc\xcc\xcc\xcc\xec?'
p258
tp259
bsg113
I01
sg50
g7
sbsg148
g150
sg106
g71
(g72
(I0
tp260
g74
tp261
Rp262
(I1
(I2
I2
tp263
g81
I00
S'\x00\x00\x00\x00\x00\x00Y@\xfe\xff\xff\xff\xff\xffM@\x00\x00\x00\x00\x00\x80\x86@\x00\x00\x00\x00\x00\xe0\x80@'
p264
tp265
bsg51
(dp266
I139977455656528
g217
ssg50
g7
sbsg51
(dp267
I139977455031568
g0
(g60
g2
Ntp268
Rp269
(dp270
g48
I2
sg64
I2
sg65
g0
(g60
g2
Ntp271
Rp272
(dp273
g48
I1
sg64
I2
sg65
g0
(g66
g2
Ntp274
Rp275
(dp276
g48
I1
sg70
Nsg49
Nsg86
g0
(g87
g2
Ntp277
Rp278
(dp279
g48
I1
sg91
g71
(g72
(I0
tp280
g74
tp281
Rp282
(I1
(I2
tp283
g81
I00
S'H\xaf\xbc\x9a\xf2\xd7z>H\xaf\xbc\x9a\xf2\xd7z>'
p284
tp285
bsg51
(dp286
I139977455031376
g275
ssg99
g71
(g72
(I0
tp287
g74
tp288
Rp289
(I1
(I2
I2
tp290
g81
I00
S'\x00\x00\x00\x00\x00\x00\x00\x00\x00\x00\x00\x00\x00\x00\x00\x00\x00\x00\x00\x00\x00\x00\xf0?\x00\x00\x00\x00\x00\x00\xf0?'
p291
tp292
bsg106
g71
(g72
(I0
tp293
g74
tp294
Rp295
(I1
(I2
I2
tp296
g81
I00
S'\x00\x00\x00\x00\x00\x00\x00\x00\x00\x00\x00\x00\x00\x00\x00\x00\x00\x00\x00\x00\x00\x00\xf0?\x00\x00\x00\x00\x00\x00\xf0?'
p297
tp298
bsg113
I01
sg50
g7
sbsg51
(dp299
I139977455031504
g272
ssg50
g7
sbsg115
I2
sg116
g0
(g117
g2
Ntp300
Rp301
(dp302
g48
I2
sg49
Nsg70
g71
(g72
(I0
tp303
g74
tp304
Rp305
(I1
(I3
I3
tp306
g81
I00
S'\x00\x00\x00\x00\x00\x00\xf0?\x00\x00\x00\x00\x00\x00\x00\x00\x00\x00\x00\x00\x00\x00\x00\x00\x00\x00\x00\x00\x00\x00\x00\x00\x00\x00\x00\x00\x00\x00\xf0?\x00\x00\x00\x00\x00\x00\x00\x00\x00\x00\x00\x00\x00\x00\x00\x00\x00\x00\x00\x00\x00\x00\x00\x00\x00\x00\x00\x00\x00\x00\xf0?'
p307
tp308
bsg50
g7
sg51
(dp309
I139977455031504
g272
ssbsg51
(dp310
I139977455031568
g269
ssg50
g7
sbsg115
I2
sg116
g217
sg51
(dp311
I139977455031696
g0
(g158
g2
Ntp312
Rp313
(dp314
g48
I2
sg162
g0
(g87
g2
Ntp315
Rp316
(dp317
g48
I1
sg91
g71
(g72
(I0
tp318
g74
tp319
Rp320
(I1
(I2
tp321
g81
I00
S'H\xaf\xbc\x9a\xf2\xd7z>H\xaf\xbc\x9a\xf2\xd7z>'
p322
tp323
bsg51
(dp324
I139977455031696
g313
ssg99
g71
(g72
(I0
tp325
g74
tp326
Rp327
(I1
(I2
I2
tp328
g81
I00
S'\x00\x00\x00\x00\x00\x00\x00\x00\x00\x00\x00\x00\x00\x00\x00\x00\x00\x00\x00\x00\x00\x00\xf0?\x00\x00\x00\x00\x00\x00\xf0?'
p329
tp330
bsg106
g71
(g72
(I0
tp331
g74
tp332
Rp333
(I1
(I2
I2
tp334
g81
I00
S'\x00\x00\x00\x00\x00\x00\x00\x00\x00\x00\x00\x00\x00\x00\x00\x00\x00\x00\x00\x00\x00\x00\xf0?\x00\x00\x00\x00\x00\x00\xf0?'
p335
tp336
bsg113
I01
sg50
g7
sbsg148
g269
sg106
Nsg51
(dp337
sg50
g7
sbssg50
g7
sbsI139977455710480
g214
sI139977455089424
g0
(g60
g2
Ntp338
Rp339
(dp340
g48
I2
sg64
I2
sg65
g0
(g60
g2
Ntp341
Rp342
(dp343
g48
I1
sg64
I2
sg65
g0
(g66
g2
Ntp344
Rp345
(dp346
g48
I1
sg70
Nsg49
Nsg86
g0
(g87
g2
Ntp347
Rp348
(dp349
g48
I1
sg91
g71
(g72
(I0
tp350
g74
tp351
Rp352
(I1
(I2
tp353
g81
I00
S'H\xaf\xbc\x9a\xf2\xd7z>H\xaf\xbc\x9a\xf2\xd7z>'
p354
tp355
bsg51
(dp356
I139977455089232
g345
ssg99
g71
(g72
(I0
tp357
g74
tp358
Rp359
(I1
(I2
I2
tp360
g81
I00
S'\x00\x00\x00\x00\x00\x00\x00\x00\x00\x00\x00\x00\x00\x00\x00\x00\x00\x00\x00\x00\x00\x00\xf0?\x00\x00\x00\x00\x00\x00\xf0?'
p361
tp362
bsg106
g71
(g72
(I0
tp363
g74
tp364
Rp365
(I1
(I2
I2
tp366
g81
I00
S'\x00\x00\x00\x00\x00\x00\x00\x00\x00\x00\x00\x00\x00\x00\x00\x00\x00\x00\x00\x00\x00\x00\xf0?\x00\x00\x00\x00\x00\x00\xf0?'
p367
tp368
bsg113
I01
sg50
g7
sbsg51
(dp369
I139977455089360
g342
ssg50
g7
sbsg115
I2
sg116
g0
(g117
g2
Ntp370
Rp371
(dp372
g48
I2
sg49
Nsg70
g71
(g72
(I0
tp373
g74
tp374
Rp375
(I1
(I3
I3
tp376
g81
I00
S'\x00\x00\x00\x00\x00\x00\xf0?\x00\x00\x00\x00\x00\x00\x00\x00\x00\x00\x00\x00\x00\x00\x00\x00\x00\x00\x00\x00\x00\x00\x00\x00\x00\x00\x00\x00\x00\x00\xf0?\x00\x00\x00\x00\x00\x00\x00\x00\x00\x00\x00\x00\x00\x00\x00\x00\x00\x00\x00\x00\x00\x00\x00\x00\x00\x00\x00\x00\x00\x00\xf0?'
p377
tp378
bsg50
g7
sg51
(dp379
I139977455089360
g342
ssbsg51
(dp380
I139977455089424
g339
ssg50
g7
sbsg115
I2
sg116
g217
sg51
(dp381
I139977455089552
g0
(g158
g2
Ntp382
Rp383
(dp384
g48
I2
sg162
g0
(g87
g2
Ntp385
Rp386
(dp387
g48
I1
sg91
g71
(g72
(I0
tp388
g74
tp389
Rp390
(I1
(I2
tp391
g81
I00
S'H\xaf\xbc\x9a\xf2\xd7z>H\xaf\xbc\x9a\xf2\xd7z>'
p392
tp393
bsg51
(dp394
I139977455089552
g383
ssg99
g71
(g72
(I0
tp395
g74
tp396
Rp397
(I1
(I2
I2
tp398
g81
I00
S'\x00\x00\x00\x00\x00\x00\x00\x00\x00\x00\x00\x00\x00\x00\x00\x00\x00\x00\x00\x00\x00\x00\xf0?\x00\x00\x00\x00\x00\x00\xf0?'
p399
tp400
bsg106
g71
(g72
(I0
tp401
g74
tp402
Rp403
(I1
(I2
I2
tp404
g81
I00
S'\x00\x00\x00\x00\x00\x00\x00\x00\x00\x00\x00\x00\x00\x00\x00\x00\x00\x00\x00\x00\x00\x00\xf0?\x00\x00\x00\x00\x00\x00\xf0?'
p405
tp406
bsg113
I01
sg50
g7
sbsg148
g339
sg106
Nsg51
(dp407
sg50
g7
sbssg50
g7
sbsI139977455032528
g0
(g60
g2
Ntp408
Rp409
(dp410
g48
I2
sg64
I2
sg65
g0
(g60
g2
Ntp411
Rp412
(dp413
g48
I1
sg64
I2
sg65
g0
(g66
g2
Ntp414
Rp415
(dp416
g48
I1
sg70
Nsg49
Nsg86
g0
(g87
g2
Ntp417
Rp418
(dp419
g48
I1
sg91
g71
(g72
(I0
tp420
g74
tp421
Rp422
(I1
(I2
tp423
g81
I00
S'H\xaf\xbc\x9a\xf2\xd7z>H\xaf\xbc\x9a\xf2\xd7z>'
p424
tp425
bsg51
(dp426
I139977455032336
g415
ssg99
g71
(g72
(I0
tp427
g74
tp428
Rp429
(I1
(I2
I2
tp430
g81
I00
S'\x00\x00\x00\x00\x00\x00\x00\x00\x00\x00\x00\x00\x00\x00\x00\x00\x00\x00\x00\x00\x00\x00\xf0?\x00\x00\x00\x00\x00\x00\xf0?'
p431
tp432
bsg106
g71
(g72
(I0
tp433
g74
tp434
Rp435
(I1
(I2
I2
tp436
g81
I00
S'\x00\x00\x00\x00\x00\x00\x00\x00\x00\x00\x00\x00\x00\x00\x00\x00\x00\x00\x00\x00\x00\x00\xf0?\x00\x00\x00\x00\x00\x00\xf0?'
p437
tp438
bsg113
I01
sg50
g7
sbsg51
(dp439
I139977455032464
g412
ssg50
g7
sbsg115
I2
sg116
g0
(g117
g2
Ntp440
Rp441
(dp442
g48
I2
sg49
Nsg70
g71
(g72
(I0
tp443
g74
tp444
Rp445
(I1
(I3
I3
tp446
g81
I00
S'\x00\x00\x00\x00\x00\x00\xf0?\x00\x00\x00\x00\x00\x00\x00\x00\x00\x00\x00\x00\x00\x00\x00\x00\x00\x00\x00\x00\x00\x00\x00\x00\x00\x00\x00\x00\x00\x00\xf0?\x00\x00\x00\x00\x00\x00\x00\x00\x00\x00\x00\x00\x00\x00\x00\x00\x00\x00\x00\x00\x00\x00\x00\x00\x00\x00\x00\x00\x00\x00\xf0?'
p447
tp448
bsg50
g7
sg51
(dp449
I139977455032464
g412
ssbsg51
(dp450
I139977455032528
g409
ssg50
g7
sbsg115
I2
sg116
g217
sg51
(dp451
I139977455032656
g0
(g158
g2
Ntp452
Rp453
(dp454
g48
I2
sg162
g0
(g87
g2
Ntp455
Rp456
(dp457
g48
I1
sg91
g71
(g72
(I0
tp458
g74
tp459
Rp460
(I1
(I2
tp461
g81
I00
S'H\xaf\xbc\x9a\xf2\xd7z>H\xaf\xbc\x9a\xf2\xd7z>'
p462
tp463
bsg51
(dp464
I139977455032656
g453
ssg99
g71
(g72
(I0
tp465
g74
tp466
Rp467
(I1
(I2
I2
tp468
g81
I00
S'\x00\x00\x00\x00\x00\x00\x00\x00\x00\x00\x00\x00\x00\x00\x00\x00\x00\x00\x00\x00\x00\x00\xf0?\x00\x00\x00\x00\x00\x00\xf0?'
p469
tp470
bsg106
g71
(g72
(I0
tp471
g74
tp472
Rp473
(I1
(I2
I2
tp474
g81
I00
S'\x00\x00\x00\x00\x00\x00\x00\x00\x00\x00\x00\x00\x00\x00\x00\x00\x00\x00\x00\x00\x00\x00\xf0?\x00\x00\x00\x00\x00\x00\xf0?'
p475
tp476
bsg113
I01
sg50
g7
sbsg148
g409
sg106
Nsg51
(dp477
sg50
g7
sbssg50
g7
sbsI139977455274384
g0
(cmatplotlib.transforms
BlendedAffine2D
p478
g2
Ntp479
Rp480
(dp481
g48
I2
sg70
Nsg55
g217
sg56
g0
(g44
g2
Ntp482
Rp483
(dp484
g48
I1
sg49
Nsg50
g7
sg51
(dp485
I139977455274384
g480
ssbsg49
Nsg50
g7
sg51
(dp486
sbsI139977455712848
g0
(g478
g2
Ntp487
Rp488
(dp489
g48
I2
sg70
Nsg55
g0
(g44
g2
Ntp490
Rp491
(dp492
g48
I1
sg49
Nsg50
g7
sg51
(dp493
I139977455712848
g488
ssbsg56
g217
sg49
Nsg50
g7
sg51
(dp494
sbsI139977455030736
g0
(g60
g2
Ntp495
Rp496
(dp497
g48
I2
sg64
I2
sg65
g0
(g60
g2
Ntp498
Rp499
(dp500
g48
I1
sg64
I2
sg65
g0
(g66
g2
Ntp501
Rp502
(dp503
g48
I1
sg70
Nsg49
Nsg86
g0
(g87
g2
Ntp504
Rp505
(dp506
g48
I1
sg91
g71
(g72
(I0
tp507
g74
tp508
Rp509
(I1
(I2
tp510
g81
I00
S'H\xaf\xbc\x9a\xf2\xd7z>H\xaf\xbc\x9a\xf2\xd7z>'
p511
tp512
bsg51
(dp513
I139977455030544
g502
ssg99
g71
(g72
(I0
tp514
g74
tp515
Rp516
(I1
(I2
I2
tp517
g81
I00
S'\x00\x00\x00\x00\x00\x00\x00\x00\x00\x00\x00\x00\x00\x00\x00\x00\x00\x00\x00\x00\x00\x00\xf0?\x00\x00\x00\x00\x00\x00\xf0?'
p518
tp519
bsg106
g71
(g72
(I0
tp520
g74
tp521
Rp522
(I1
(I2
I2
tp523
g81
I00
S'\x00\x00\x00\x00\x00\x00\x00\x00\x00\x00\x00\x00\x00\x00\x00\x00\x00\x00\x00\x00\x00\x00\xf0?\x00\x00\x00\x00\x00\x00\xf0?'
p524
tp525
bsg113
I01
sg50
g7
sbsg51
(dp526
I139977455030672
g499
ssg50
g7
sbsg115
I2
sg116
g0
(g117
g2
Ntp527
Rp528
(dp529
g48
I2
sg49
Nsg70
g71
(g72
(I0
tp530
g74
tp531
Rp532
(I1
(I3
I3
tp533
g81
I00
S'\x00\x00\x00\x00\x00\x00\xf0?\x00\x00\x00\x00\x00\x00\x00\x00\x00\x00\x00\x00\x00\x00\x00\x00\x00\x00\x00\x00\x00\x00\x00\x00\x00\x00\x00\x00\x00\x00\xf0?\x00\x00\x00\x00\x00\x00\x00\x00\x00\x00\x00\x00\x00\x00\x00\x00\x00\x00\x00\x00\x00\x00\x00\x00\x00\x00\x00\x00\x00\x00\xf0?'
p534
tp535
bsg50
g7
sg51
(dp536
I139977455030672
g499
ssbsg51
(dp537
I139977455030736
g496
ssg50
g7
sbsg115
I2
sg116
g217
sg51
(dp538
I139977455030864
g0
(g158
g2
Ntp539
Rp540
(dp541
g48
I2
sg162
g0
(g87
g2
Ntp542
Rp543
(dp544
g48
I1
sg91
g71
(g72
(I0
tp545
g74
tp546
Rp547
(I1
(I2
tp548
g81
I00
S'H\xaf\xbc\x9a\xf2\xd7z>H\xaf\xbc\x9a\xf2\xd7z>'
p549
tp550
bsg51
(dp551
I139977455030864
g540
ssg99
g71
(g72
(I0
tp552
g74
tp553
Rp554
(I1
(I2
I2
tp555
g81
I00
S'\x00\x00\x00\x00\x00\x00\x00\x00\x00\x00\x00\x00\x00\x00\x00\x00\x00\x00\x00\x00\x00\x00\xf0?\x00\x00\x00\x00\x00\x00\xf0?'
p556
tp557
bsg106
g71
(g72
(I0
tp558
g74
tp559
Rp560
(I1
(I2
I2
tp561
g81
I00
S'\x00\x00\x00\x00\x00\x00\x00\x00\x00\x00\x00\x00\x00\x00\x00\x00\x00\x00\x00\x00\x00\x00\xf0?\x00\x00\x00\x00\x00\x00\xf0?'
p562
tp563
bsg113
I01
sg50
g7
sbsg148
g496
sg106
Nsg51
(dp564
sg50
g7
sbssg50
g7
sbsI139977455090320
g0
(g60
g2
Ntp565
Rp566
(dp567
g48
I2
sg64
I2
sg65
g0
(g60
g2
Ntp568
Rp569
(dp570
g48
I1
sg64
I2
sg65
g0
(g66
g2
Ntp571
Rp572
(dp573
g48
I1
sg70
Nsg49
Nsg86
g0
(g87
g2
Ntp574
Rp575
(dp576
g48
I1
sg91
g71
(g72
(I0
tp577
g74
tp578
Rp579
(I1
(I2
tp580
g81
I00
S'H\xaf\xbc\x9a\xf2\xd7z>H\xaf\xbc\x9a\xf2\xd7z>'
p581
tp582
bsg51
(dp583
I139977455090128
g572
ssg99
g71
(g72
(I0
tp584
g74
tp585
Rp586
(I1
(I2
I2
tp587
g81
I00
S'\x00\x00\x00\x00\x00\x00\x00\x00\x00\x00\x00\x00\x00\x00\x00\x00\x00\x00\x00\x00\x00\x00\xf0?\x00\x00\x00\x00\x00\x00\xf0?'
p588
tp589
bsg106
g71
(g72
(I0
tp590
g74
tp591
Rp592
(I1
(I2
I2
tp593
g81
I00
S'\x00\x00\x00\x00\x00\x00\x00\x00\x00\x00\x00\x00\x00\x00\x00\x00\x00\x00\x00\x00\x00\x00\xf0?\x00\x00\x00\x00\x00\x00\xf0?'
p594
tp595
bsg113
I01
sg50
g7
sbsg51
(dp596
I139977455090256
g569
ssg50
g7
sbsg115
I2
sg116
g0
(g117
g2
Ntp597
Rp598
(dp599
g48
I2
sg49
Nsg70
g71
(g72
(I0
tp600
g74
tp601
Rp602
(I1
(I3
I3
tp603
g81
I00
S'\x00\x00\x00\x00\x00\x00\xf0?\x00\x00\x00\x00\x00\x00\x00\x00\x00\x00\x00\x00\x00\x00\x00\x00\x00\x00\x00\x00\x00\x00\x00\x00\x00\x00\x00\x00\x00\x00\xf0?\x00\x00\x00\x00\x00\x00\x00\x00\x00\x00\x00\x00\x00\x00\x00\x00\x00\x00\x00\x00\x00\x00\x00\x00\x00\x00\x00\x00\x00\x00\xf0?'
p604
tp605
bsg50
g7
sg51
(dp606
I139977455090256
g569
ssbsg51
(dp607
I139977455090320
g566
ssg50
g7
sbsg115
I2
sg116
g217
sg51
(dp608
I139977455090448
g0
(g158
g2
Ntp609
Rp610
(dp611
g48
I2
sg162
g0
(g87
g2
Ntp612
Rp613
(dp614
g48
I1
sg91
g71
(g72
(I0
tp615
g74
tp616
Rp617
(I1
(I2
tp618
g81
I00
S'H\xaf\xbc\x9a\xf2\xd7z>H\xaf\xbc\x9a\xf2\xd7z>'
p619
tp620
bsg51
(dp621
I139977455090448
g610
ssg99
g71
(g72
(I0
tp622
g74
tp623
Rp624
(I1
(I2
I2
tp625
g81
I00
S'\x00\x00\x00\x00\x00\x00\x00\x00\x00\x00\x00\x00\x00\x00\x00\x00\x00\x00\x00\x00\x00\x00\xf0?\x00\x00\x00\x00\x00\x00\xf0?'
p626
tp627
bsg106
g71
(g72
(I0
tp628
g74
tp629
Rp630
(I1
(I2
I2
tp631
g81
I00
S'\x00\x00\x00\x00\x00\x00\x00\x00\x00\x00\x00\x00\x00\x00\x00\x00\x00\x00\x00\x00\x00\x00\xf0?\x00\x00\x00\x00\x00\x00\xf0?'
p632
tp633
bsg113
I01
sg50
g7
sbsg148
g566
sg106
Nsg51
(dp634
sg50
g7
sbssg50
g7
sbsI139977455274768
g0
(g478
g2
Ntp635
Rp636
(dp637
g48
I2
sg70
Nsg55
g0
(g44
g2
Ntp638
Rp639
(dp640
g48
I1
sg49
Nsg50
g7
sg51
(dp641
I139977455274768
g636
ssbsg56
g217
sg49
Nsg50
g7
sg51
(dp642
sbsI139977455450960
g0
(g60
g2
Ntp643
Rp644
(dp645
g48
I2
sg64
I2
sg65
g217
sg115
I2
sg116
g0
(g195
g2
Ntp646
Rp647
(dp648
g48
I2
sg70
Nsg205
g186
sg49
Nsg206
(F0.0
F0.06944444444444445
tp649
sg50
g7
sg51
(dp650
I139977455450960
g644
sI139977455451024
g0
(g60
g2
Ntp651
Rp652
(dp653
g48
I2
sg64
I2
sg65
g217
sg115
I2
sg116
g647
sg51
(dp654
sg50
g7
sbsI139977455451088
g0
(g60
g2
Ntp655
Rp656
(dp657
g48
I2
sg64
I2
sg65
g217
sg115
I2
sg116
g647
sg51
(dp658
sg50
g7
sbssbsg51
(dp659
sg50
g7
sbsI139977455713232
g0
(g478
g2
Ntp660
Rp661
(dp662
g48
I2
sg70
Nsg55
g0
(g44
g2
Ntp663
Rp664
(dp665
g48
I1
sg49
Nsg50
g7
sg51
(dp666
I139977455713232
g661
ssbsg56
g217
sg49
Nsg50
g7
sg51
(dp667
sbsI139977455033424
g0
(g60
g2
Ntp668
Rp669
(dp670
g48
I2
sg64
I2
sg65
g0
(g60
g2
Ntp671
Rp672
(dp673
g48
I1
sg64
I2
sg65
g0
(g66
g2
Ntp674
Rp675
(dp676
g48
I1
sg70
Nsg49
Nsg86
g0
(g87
g2
Ntp677
Rp678
(dp679
g48
I1
sg91
g71
(g72
(I0
tp680
g74
tp681
Rp682
(I1
(I2
tp683
g81
I00
S'H\xaf\xbc\x9a\xf2\xd7z>H\xaf\xbc\x9a\xf2\xd7z>'
p684
tp685
bsg51
(dp686
I139977455033232
g675
ssg99
g71
(g72
(I0
tp687
g74
tp688
Rp689
(I1
(I2
I2
tp690
g81
I00
S'\x00\x00\x00\x00\x00\x00\x00\x00\x00\x00\x00\x00\x00\x00\x00\x00\x00\x00\x00\x00\x00\x00\xf0?\x00\x00\x00\x00\x00\x00\xf0?'
p691
tp692
bsg106
g71
(g72
(I0
tp693
g74
tp694
Rp695
(I1
(I2
I2
tp696
g81
I00
S'\x00\x00\x00\x00\x00\x00\x00\x00\x00\x00\x00\x00\x00\x00\x00\x00\x00\x00\x00\x00\x00\x00\xf0?\x00\x00\x00\x00\x00\x00\xf0?'
p697
tp698
bsg113
I01
sg50
g7
sbsg51
(dp699
I139977455033360
g672
ssg50
g7
sbsg115
I2
sg116
g0
(g117
g2
Ntp700
Rp701
(dp702
g48
I2
sg49
Nsg70
g71
(g72
(I0
tp703
g74
tp704
Rp705
(I1
(I3
I3
tp706
g81
I00
S'\x00\x00\x00\x00\x00\x00\xf0?\x00\x00\x00\x00\x00\x00\x00\x00\x00\x00\x00\x00\x00\x00\x00\x00\x00\x00\x00\x00\x00\x00\x00\x00\x00\x00\x00\x00\x00\x00\xf0?\x00\x00\x00\x00\x00\x00\x00\x00\x00\x00\x00\x00\x00\x00\x00\x00\x00\x00\x00\x00\x00\x00\x00\x00\x00\x00\x00\x00\x00\x00\xf0?'
p707
tp708
bsg50
g7
sg51
(dp709
I139977455033360
g672
ssbsg51
(dp710
I139977455033424
g669
ssg50
g7
sbsg115
I2
sg116
g217
sg51
(dp711
I139977455033552
g0
(g158
g2
Ntp712
Rp713
(dp714
g48
I2
sg162
g0
(g87
g2
Ntp715
Rp716
(dp717
g48
I1
sg91
g71
(g72
(I0
tp718
g74
tp719
Rp720
(I1
(I2
tp721
g81
I00
S'H\xaf\xbc\x9a\xf2\xd7z>H\xaf\xbc\x9a\xf2\xd7z>'
p722
tp723
bsg51
(dp724
I139977455033552
g713
ssg99
g71
(g72
(I0
tp725
g74
tp726
Rp727
(I1
(I2
I2
tp728
g81
I00
S'\x00\x00\x00\x00\x00\x00\x00\x00\x00\x00\x00\x00\x00\x00\x00\x00\x00\x00\x00\x00\x00\x00\xf0?\x00\x00\x00\x00\x00\x00\xf0?'
p729
tp730
bsg106
g71
(g72
(I0
tp731
g74
tp732
Rp733
(I1
(I2
I2
tp734
g81
I00
S'\x00\x00\x00\x00\x00\x00\x00\x00\x00\x00\x00\x00\x00\x00\x00\x00\x00\x00\x00\x00\x00\x00\xf0?\x00\x00\x00\x00\x00\x00\xf0?'
p735
tp736
bsg113
I01
sg50
g7
sbsg148
g669
sg106
Nsg51
(dp737
sg50
g7
sbssg50
g7
sbsI139977455713680
g0
(g60
g2
Ntp738
Rp739
(dp740
g48
I2
sg64
I2
sg65
g0
(g60
g2
Ntp741
Rp742
(dp743
g48
I1
sg64
I2
sg65
g0
(g66
g2
Ntp744
Rp745
(dp746
g48
I1
sg70
Nsg49
Nsg86
g0
(g87
g2
Ntp747
Rp748
(dp749
g48
I1
sg91
g71
(g72
(I0
tp750
g74
tp751
Rp752
(I1
(I2
tp753
g81
I00
S'H\xaf\xbc\x9a\xf2\xd7z>H\xaf\xbc\x9a\xf2\xd7z>'
p754
tp755
bsg51
(dp756
I139977455321552
g745
ssg99
g71
(g72
(I0
tp757
g74
tp758
Rp759
(I1
(I2
I2
tp760
g81
I00
S'\x00\x00\x00\x00\x00\x00\x00\x00\x00\x00\x00\x00\x00\x00\x00\x00\x00\x00\x00\x00\x00\x00\xf0?\x00\x00\x00\x00\x00\x00\xf0?'
p761
tp762
bsg106
g71
(g72
(I0
tp763
g74
tp764
Rp765
(I1
(I2
I2
tp766
g81
I00
S'\x00\x00\x00\x00\x00\x00\x00\x00\x00\x00\x00\x00\x00\x00\x00\x00\x00\x00\x00\x00\x00\x00\xf0?\x00\x00\x00\x00\x00\x00\xf0?'
p767
tp768
bsg113
I01
sg50
g7
sbsg51
(dp769
I139977455714128
g742
ssg50
g7
sbsg115
I2
sg116
g0
(g117
g2
Ntp770
Rp771
(dp772
g48
I2
sg49
Nsg70
g71
(g72
(I0
tp773
g74
tp774
Rp775
(I1
(I3
I3
tp776
g81
I00
S'\x00\x00\x00\x00\x00\x00\xf0?\x00\x00\x00\x00\x00\x00\x00\x00\x00\x00\x00\x00\x00\x00\x00\x00\x00\x00\x00\x00\x00\x00\x00\x00\x00\x00\x00\x00\x00\x00\xf0?\x00\x00\x00\x00\x00\x00\x00\x00\x00\x00\x00\x00\x00\x00\x00\x00\x00\x00\x00\x00\x00\x00\x00\x00\x00\x00\x00\x00\x00\x00\xf0?'
p777
tp778
bsg50
g7
sg51
(dp779
I139977455714128
g742
ssbsg51
(dp780
I139977455713680
g739
ssg50
g7
sbsg115
I2
sg116
g217
sg51
(dp781
I139977455363792
g0
(g158
g2
Ntp782
Rp783
(dp784
g48
I2
sg162
g0
(g87
g2
Ntp785
Rp786
(dp787
g48
I1
sg91
g71
(g72
(I0
tp788
g74
tp789
Rp790
(I1
(I2
tp791
g81
I00
S'H\xaf\xbc\x9a\xf2\xd7z>H\xaf\xbc\x9a\xf2\xd7z>'
p792
tp793
bsg51
(dp794
I139977455363792
g783
ssg99
g71
(g72
(I0
tp795
g74
tp796
Rp797
(I1
(I2
I2
tp798
g81
I00
S'\x00\x00\x00\x00\x00\x00\x00\x00\x00\x00\x00\x00\x00\x00\x00\x00\x00\x00\x00\x00\x00\x00\xf0?\x00\x00\x00\x00\x00\x00\xf0?'
p799
tp800
bsg106
g71
(g72
(I0
tp801
g74
tp802
Rp803
(I1
(I2
I2
tp804
g81
I00
S'\x00\x00\x00\x00\x00\x00\x00\x00\x00\x00\x00\x00\x00\x00\x00\x00\x00\x00\x00\x00\x00\x00\xf0?\x00\x00\x00\x00\x00\x00\xf0?'
p805
tp806
bsg113
I01
sg50
g7
sbsg148
g739
sg106
Nsg51
(dp807
sg50
g7
sbssg50
g7
sbsI139977455091216
g0
(g60
g2
Ntp808
Rp809
(dp810
g48
I2
sg64
I2
sg65
g0
(g60
g2
Ntp811
Rp812
(dp813
g48
I1
sg64
I2
sg65
g0
(g66
g2
Ntp814
Rp815
(dp816
g48
I1
sg70
Nsg49
Nsg86
g0
(g87
g2
Ntp817
Rp818
(dp819
g48
I1
sg91
g71
(g72
(I0
tp820
g74
tp821
Rp822
(I1
(I2
tp823
g81
I00
S'H\xaf\xbc\x9a\xf2\xd7z>H\xaf\xbc\x9a\xf2\xd7z>'
p824
tp825
bsg51
(dp826
I139977455091024
g815
ssg99
g71
(g72
(I0
tp827
g74
tp828
Rp829
(I1
(I2
I2
tp830
g81
I00
S'\x00\x00\x00\x00\x00\x00\x00\x00\x00\x00\x00\x00\x00\x00\x00\x00\x00\x00\x00\x00\x00\x00\xf0?\x00\x00\x00\x00\x00\x00\xf0?'
p831
tp832
bsg106
g71
(g72
(I0
tp833
g74
tp834
Rp835
(I1
(I2
I2
tp836
g81
I00
S'\x00\x00\x00\x00\x00\x00\x00\x00\x00\x00\x00\x00\x00\x00\x00\x00\x00\x00\x00\x00\x00\x00\xf0?\x00\x00\x00\x00\x00\x00\xf0?'
p837
tp838
bsg113
I01
sg50
g7
sbsg51
(dp839
I139977455091152
g812
ssg50
g7
sbsg115
I2
sg116
g0
(g117
g2
Ntp840
Rp841
(dp842
g48
I2
sg49
Nsg70
g71
(g72
(I0
tp843
g74
tp844
Rp845
(I1
(I3
I3
tp846
g81
I00
S'\x00\x00\x00\x00\x00\x00\xf0?\x00\x00\x00\x00\x00\x00\x00\x00\x00\x00\x00\x00\x00\x00\x00\x00\x00\x00\x00\x00\x00\x00\x00\x00\x00\x00\x00\x00\x00\x00\xf0?\x00\x00\x00\x00\x00\x00\x00\x00\x00\x00\x00\x00\x00\x00\x00\x00\x00\x00\x00\x00\x00\x00\x00\x00\x00\x00\x00\x00\x00\x00\xf0?'
p847
tp848
bsg50
g7
sg51
(dp849
I139977455091152
g812
ssbsg51
(dp850
I139977455091216
g809
ssg50
g7
sbsg115
I2
sg116
g217
sg51
(dp851
I139977455091344
g0
(g158
g2
Ntp852
Rp853
(dp854
g48
I2
sg162
g0
(g87
g2
Ntp855
Rp856
(dp857
g48
I1
sg91
g71
(g72
(I0
tp858
g74
tp859
Rp860
(I1
(I2
tp861
g81
I00
S'H\xaf\xbc\x9a\xf2\xd7z>H\xaf\xbc\x9a\xf2\xd7z>'
p862
tp863
bsg51
(dp864
I139977455091344
g853
ssg99
g71
(g72
(I0
tp865
g74
tp866
Rp867
(I1
(I2
I2
tp868
g81
I00
S'\x00\x00\x00\x00\x00\x00\x00\x00\x00\x00\x00\x00\x00\x00\x00\x00\x00\x00\x00\x00\x00\x00\xf0?\x00\x00\x00\x00\x00\x00\xf0?'
p869
tp870
bsg106
g71
(g72
(I0
tp871
g74
tp872
Rp873
(I1
(I2
I2
tp874
g81
I00
S'\x00\x00\x00\x00\x00\x00\x00\x00\x00\x00\x00\x00\x00\x00\x00\x00\x00\x00\x00\x00\x00\x00\xf0?\x00\x00\x00\x00\x00\x00\xf0?'
p875
tp876
bsg113
I01
sg50
g7
sbsg148
g809
sg106
Nsg51
(dp877
sg50
g7
sbssg50
g7
sbsI139977455503120
g0
(g60
g2
Ntp878
Rp879
(dp880
g48
I2
sg64
I2
sg65
g0
(g60
g2
Ntp881
Rp882
(dp883
g48
I1
sg64
I2
sg65
g0
(g66
g2
Ntp884
Rp885
(dp886
g48
I1
sg70
Nsg49
Nsg86
g0
(g87
g2
Ntp887
Rp888
(dp889
g48
I1
sg91
g71
(g72
(I0
tp890
g74
tp891
Rp892
(I1
(I2
tp893
g81
I00
S'H\xaf\xbc\x9a\xf2\xd7z>H\xaf\xbc\x9a\xf2\xd7z>'
p894
tp895
bsg51
(dp896
I139977455502928
g885
ssg99
g71
(g72
(I0
tp897
g74
tp898
Rp899
(I1
(I2
I2
tp900
g81
I00
S'\x00\x00\x00\x00\x00\x00\x00\x00\x00\x00\x00\x00\x00\x00\x00\x00\x00\x00\x00\x00\x00\x00\xf0?\x00\x00\x00\x00\x00\x00\xf0?'
p901
tp902
bsg106
g71
(g72
(I0
tp903
g74
tp904
Rp905
(I1
(I2
I2
tp906
g81
I00
S'\x00\x00\x00\x00\x00\x00\x00\x00\x00\x00\x00\x00\x00\x00\x00\x00\x00\x00\x00\x00\x00\x00\xf0?\x00\x00\x00\x00\x00\x00\xf0?'
p907
tp908
bsg113
I01
sg50
g7
sbsg51
(dp909
I139977455503056
g882
ssg50
g7
sbsg115
I2
sg116
g0
(g117
g2
Ntp910
Rp911
(dp912
g48
I2
sg49
Nsg70
g71
(g72
(I0
tp913
g74
tp914
Rp915
(I1
(I3
I3
tp916
g81
I00
S'\x00\x00\x00\x00\x00\x00\xf0?\x00\x00\x00\x00\x00\x00\x00\x00\x00\x00\x00\x00\x00\x00\x00\x00\x00\x00\x00\x00\x00\x00\x00\x00\x00\x00\x00\x00\x00\x00\xf0?\x00\x00\x00\x00\x00\x00\x00\x00\x00\x00\x00\x00\x00\x00\x00\x00\x00\x00\x00\x00\x00\x00\x00\x00\x00\x00\x00\x00\x00\x00\xf0?'
p917
tp918
bsg50
g7
sg51
(dp919
I139977455503056
g882
ssbsg51
(dp920
I139977455503120
g879
ssg50
g7
sbsg115
I2
sg116
g217
sg51
(dp921
I139977455503248
g0
(g158
g2
Ntp922
Rp923
(dp924
g48
I2
sg162
g0
(g87
g2
Ntp925
Rp926
(dp927
g48
I1
sg91
g71
(g72
(I0
tp928
g74
tp929
Rp930
(I1
(I2
tp931
g81
I00
S'H\xaf\xbc\x9a\xf2\xd7z>H\xaf\xbc\x9a\xf2\xd7z>'
p932
tp933
bsg51
(dp934
I139977455503248
g923
ssg99
g71
(g72
(I0
tp935
g74
tp936
Rp937
(I1
(I2
I2
tp938
g81
I00
S'\x00\x00\x00\x00\x00\x00\x00\x00\x00\x00\x00\x00\x00\x00\x00\x00\x00\x00\x00\x00\x00\x00\xf0?\x00\x00\x00\x00\x00\x00\xf0?'
p939
tp940
bsg106
g71
(g72
(I0
tp941
g74
tp942
Rp943
(I1
(I2
I2
tp944
g81
I00
S'\x00\x00\x00\x00\x00\x00\x00\x00\x00\x00\x00\x00\x00\x00\x00\x00\x00\x00\x00\x00\x00\x00\xf0?\x00\x00\x00\x00\x00\x00\xf0?'
p945
tp946
bsg113
I01
sg50
g7
sbsg148
g879
sg106
Nsg51
(dp947
sg50
g7
sbssg50
g7
sbsI139977455451024
g652
sI139977455451088
g656
sI139977455452112
g0
(g60
g2
Ntp948
Rp949
(dp950
g48
I2
sg64
I2
sg65
g0
(g60
g2
Ntp951
Rp952
(dp953
g48
I1
sg64
I2
sg65
g0
(g66
g2
Ntp954
Rp955
(dp956
g48
I1
sg70
Nsg49
Nsg86
g0
(g87
g2
Ntp957
Rp958
(dp959
g48
I1
sg91
g71
(g72
(I0
tp960
g74
tp961
Rp962
(I1
(I2
tp963
g81
I00
S'H\xaf\xbc\x9a\xf2\xd7z>H\xaf\xbc\x9a\xf2\xd7z>'
p964
tp965
bsg51
(dp966
I139977455451920
g955
ssg99
g71
(g72
(I0
tp967
g74
tp968
Rp969
(I1
(I2
I2
tp970
g81
I00
S'\x00\x00\x00\x00\x00\x00\x00\x00\x00\x00\x00\x00\x00\x00\x00\x00\x00\x00\x00\x00\x00\x00\xf0?\x00\x00\x00\x00\x00\x00\xf0?'
p971
tp972
bsg106
g71
(g72
(I0
tp973
g74
tp974
Rp975
(I1
(I2
I2
tp976
g81
I00
S'\x00\x00\x00\x00\x00\x00\x00\x00\x00\x00\x00\x00\x00\x00\x00\x00\x00\x00\x00\x00\x00\x00\xf0?\x00\x00\x00\x00\x00\x00\xf0?'
p977
tp978
bsg113
I01
sg50
g7
sbsg51
(dp979
I139977455452048
g952
ssg50
g7
sbsg115
I2
sg116
g0
(g117
g2
Ntp980
Rp981
(dp982
g48
I2
sg49
Nsg70
g71
(g72
(I0
tp983
g74
tp984
Rp985
(I1
(I3
I3
tp986
g81
I00
S'\x00\x00\x00\x00\x00\x00\xf0?\x00\x00\x00\x00\x00\x00\x00\x00\x00\x00\x00\x00\x00\x00\x00\x00\x00\x00\x00\x00\x00\x00\x00\x00\x00\x00\x00\x00\x00\x00\xf0?\x00\x00\x00\x00\x00\x00\x00\x00\x00\x00\x00\x00\x00\x00\x00\x00\x00\x00\x00\x00\x00\x00\x00\x00\x00\x00\x00\x00\x00\x00\xf0?'
p987
tp988
bsg50
g7
sg51
(dp989
I139977455452048
g952
ssbsg51
(dp990
I139977455452112
g949
ssg50
g7
sbsg115
I2
sg116
g217
sg51
(dp991
I139977455501456
g0
(g158
g2
Ntp992
Rp993
(dp994
g48
I2
sg162
g0
(g87
g2
Ntp995
Rp996
(dp997
g48
I1
sg91
g71
(g72
(I0
tp998
g74
tp999
Rp1000
(I1
(I2
tp1001
g81
I00
S'H\xaf\xbc\x9a\xf2\xd7z>H\xaf\xbc\x9a\xf2\xd7z>'
p1002
tp1003
bsg51
(dp1004
I139977455501456
g993
ssg99
g71
(g72
(I0
tp1005
g74
tp1006
Rp1007
(I1
(I2
I2
tp1008
g81
I00
S'\x00\x00\x00\x00\x00\x00\x00\x00\x00\x00\x00\x00\x00\x00\x00\x00\x00\x00\x00\x00\x00\x00\xf0?\x00\x00\x00\x00\x00\x00\xf0?'
p1009
tp1010
bsg106
g71
(g72
(I0
tp1011
g74
tp1012
Rp1013
(I1
(I2
I2
tp1014
g81
I00
S'\x00\x00\x00\x00\x00\x00\x00\x00\x00\x00\x00\x00\x00\x00\x00\x00\x00\x00\x00\x00\x00\x00\xf0?\x00\x00\x00\x00\x00\x00\xf0?'
p1015
tp1016
bsg113
I01
sg50
g7
sbsg148
g949
sg106
Nsg51
(dp1017
sg50
g7
sbssg50
g7
sbsI139977455504016
g0
(g60
g2
Ntp1018
Rp1019
(dp1020
g48
I2
sg64
I2
sg65
g0
(g60
g2
Ntp1021
Rp1022
(dp1023
g48
I1
sg64
I2
sg65
g0
(g66
g2
Ntp1024
Rp1025
(dp1026
g48
I1
sg70
Nsg49
Nsg86
g0
(g87
g2
Ntp1027
Rp1028
(dp1029
g48
I1
sg91
g71
(g72
(I0
tp1030
g74
tp1031
Rp1032
(I1
(I2
tp1033
g81
I00
S'H\xaf\xbc\x9a\xf2\xd7z>H\xaf\xbc\x9a\xf2\xd7z>'
p1034
tp1035
bsg51
(dp1036
I139977455503824
g1025
ssg99
g71
(g72
(I0
tp1037
g74
tp1038
Rp1039
(I1
(I2
I2
tp1040
g81
I00
S'\x00\x00\x00\x00\x00\x00\x00\x00\x00\x00\x00\x00\x00\x00\x00\x00\x00\x00\x00\x00\x00\x00\xf0?\x00\x00\x00\x00\x00\x00\xf0?'
p1041
tp1042
bsg106
g71
(g72
(I0
tp1043
g74
tp1044
Rp1045
(I1
(I2
I2
tp1046
g81
I00
S'\x00\x00\x00\x00\x00\x00\x00\x00\x00\x00\x00\x00\x00\x00\x00\x00\x00\x00\x00\x00\x00\x00\xf0?\x00\x00\x00\x00\x00\x00\xf0?'
p1047
tp1048
bsg113
I01
sg50
g7
sbsg51
(dp1049
I139977455503952
g1022
ssg50
g7
sbsg115
I2
sg116
g0
(g117
g2
Ntp1050
Rp1051
(dp1052
g48
I2
sg49
Nsg70
g71
(g72
(I0
tp1053
g74
tp1054
Rp1055
(I1
(I3
I3
tp1056
g81
I00
S'\x00\x00\x00\x00\x00\x00\xf0?\x00\x00\x00\x00\x00\x00\x00\x00\x00\x00\x00\x00\x00\x00\x00\x00\x00\x00\x00\x00\x00\x00\x00\x00\x00\x00\x00\x00\x00\x00\xf0?\x00\x00\x00\x00\x00\x00\x00\x00\x00\x00\x00\x00\x00\x00\x00\x00\x00\x00\x00\x00\x00\x00\x00\x00\x00\x00\x00\x00\x00\x00\xf0?'
p1057
tp1058
bsg50
g7
sg51
(dp1059
I139977455503952
g1022
ssbsg51
(dp1060
I139977455504016
g1019
ssg50
g7
sbsg115
I2
sg116
g217
sg51
(dp1061
I139977455504144
g0
(g158
g2
Ntp1062
Rp1063
(dp1064
g48
I2
sg162
g0
(g87
g2
Ntp1065
Rp1066
(dp1067
g48
I1
sg91
g71
(g72
(I0
tp1068
g74
tp1069
Rp1070
(I1
(I2
tp1071
g81
I00
S'H\xaf\xbc\x9a\xf2\xd7z>H\xaf\xbc\x9a\xf2\xd7z>'
p1072
tp1073
bsg51
(dp1074
I139977455504144
g1063
ssg99
g71
(g72
(I0
tp1075
g74
tp1076
Rp1077
(I1
(I2
I2
tp1078
g81
I00
S'\x00\x00\x00\x00\x00\x00\x00\x00\x00\x00\x00\x00\x00\x00\x00\x00\x00\x00\x00\x00\x00\x00\xf0?\x00\x00\x00\x00\x00\x00\xf0?'
p1079
tp1080
bsg106
g71
(g72
(I0
tp1081
g74
tp1082
Rp1083
(I1
(I2
I2
tp1084
g81
I00
S'\x00\x00\x00\x00\x00\x00\x00\x00\x00\x00\x00\x00\x00\x00\x00\x00\x00\x00\x00\x00\x00\x00\xf0?\x00\x00\x00\x00\x00\x00\xf0?'
p1085
tp1086
bsg113
I01
sg50
g7
sbsg148
g1019
sg106
Nsg51
(dp1087
sg50
g7
sbssg50
g7
sbsI139977455710288
g0
(g60
g2
Ntp1088
Rp1089
(dp1090
g48
I2
sg64
I2
sg65
g0
(cmatplotlib.transforms
BboxTransformFrom
p1091
g2
Ntp1092
Rp1093
(dp1094
g48
I0
sS'_boxin'
p1095
g0
(g158
g2
Ntp1096
Rp1097
(dp1098
g48
I0
sg162
g0
(g87
g2
Ntp1099
Rp1100
(dp1101
g48
I0
sg91
g71
(g72
(I0
tp1102
g74
tp1103
Rp1104
(I1
(I2
tp1105
g81
I00
S'H\xaf\xbc\x9a\xf2\xd7z>H\xaf\xbc\x9a\xf2\xd7z>'
p1106
tp1107
bsg51
(dp1108
I139977455656400
g1097
ssg99
g71
(g72
(I0
tp1109
g74
tp1110
Rp1111
(I1
(I2
I2
tp1112
g81
I00
S'\x00\x00\x00\x00\x00\x00\x00\x00\x00\x00\x00\x00\x00\x00\x00\x00\x00\x00\x00\x00\x00\x00\xf0?\x00\x00\x00\x00\x00\x00\xf0?'
p1113
tp1114
bsg106
g71
(g72
(I0
tp1115
g74
tp1116
Rp1117
(I1
(I2
I2
tp1118
g81
I00
S'\x00\x00\x00\x00\x00\x00\x00\x00\x00\x00\x00\x00\x00\x00\x00\x00\x00\x00\x00\x00\x00\x00\xf0?\x00\x00\x00\x00\x00\x00\xf0?'
p1119
tp1120
bsg113
I01
sg50
g7
sbsg148
g0
(cmatplotlib.transforms
TransformWrapper
p1121
g2
Ntp1122
Rp1123
(dp1124
Voutput_dims
p1125
I2
sVparents
p1126
(dp1127
I139977455656400
g1097
sI139977455710352
g0
(g60
g2
Ntp1128
Rp1129
(dp1130
g48
I2
sg64
I2
sg65
g1123
sg115
I2
sg116
g1089
sg51
(dp1131
I139977455710480
g214
sI139977455710544
g0
(g212
g2
Ntp1132
Rp1133
(dp1134
g48
I2
sg55
g1129
sg56
g217
sS'_affine'
p1135
g217
sg51
(dp1136
I139977454921552
g0
(cmatplotlib.transforms
TransformedPath
p1137
g2
Ntp1138
Rp1139
(dp1140
g48
I2
sS'_transformed_path'
p1141
g0
(cmatplotlib.path
Path
p1142
g2
Ntp1143
Rp1144
(dp1145
S'_should_simplify'
p1146
I00
sS'_codes'
p1147
NsS'_vertices'
p1148
g71
(g72
(I0
tp1149
g74
tp1150
Rp1151
(I1
(I1
I2
tp1152
g81
I00
S'\x00\x00\x00\x00\x00\x00\x00\x00\x9a\x99\x99\x99\x99\x99\xc9?'
p1153
tp1154
bsS'_readonly'
p1155
I00
sS'_simplify_threshold'
p1156
F0.1111111111111111
sS'_interpolation_steps'
p1157
I1
sS'_has_nonfinite'
p1158
I00
sbsS'_path'
p1159
g0
(g1142
g2
Ntp1160
Rp1161
(dp1162
g1146
I00
sg1147
Nsg1148
g1151
sg1155
I00
sg1156
F0.1111111111111111
sg1157
I1
sg1158
I00
sbsg148
g1133
sg50
g7
sg51
(dp1163
sS'_transformed_points'
p1164
g0
(g1142
g2
Ntp1165
Rp1166
(dp1167
g1146
I00
sg1147
Nsg1148
g1151
sg1155
I00
sg1156
F0.1111111111111111
sg1157
I1
sg1158
I00
sbsbsI139977455449232
g0
(g60
g2
Ntp1168
Rp1169
(dp1170
g48
I2
sg64
I2
sg65
g1133
sg115
I2
sg116
g0
(g195
g2
Ntp1171
Rp1172
(dp1173
g48
I2
sg70
Nsg205
g186
sg49
Nsg206
(F-0.05555555555555555
I0
tp1174
sg50
g7
sg51
(dp1175
I139977455449232
g1169
ssbsg51
(dp1176
sg50
g7
sbsI139977454884752
g0
(g1137
g2
Ntp1177
Rp1178
(dp1179
g48
I2
sg1141
g0
(g1142
g2
Ntp1180
Rp1181
(dp1182
g1146
I00
sg1147
Nsg1148
g71
(g72
(I0
tp1183
g74
tp1184
Rp1185
(I1
(I1
I2
tp1186
g81
I00
S'\x00\x00\x00\x00\x00\x00\x00\x00\x9a\x99\x99\x99\x99\x99\xd9?'
p1187
tp1188
bsg1155
I00
sg1156
F0.1111111111111111
sg1157
I1
sg1158
I00
sbsg1159
g0
(g1142
g2
Ntp1189
Rp1190
(dp1191
g1146
I00
sg1147
Nsg1148
g1185
sg1155
I00
sg1156
F0.1111111111111111
sg1157
I1
sg1158
I00
sbsg148
g1133
sg50
g7
sg51
(dp1192
sg1164
g0
(g1142
g2
Ntp1193
Rp1194
(dp1195
g1146
I00
sg1147
Nsg1148
g1185
sg1155
I00
sg1156
F0.1111111111111111
sg1157
I1
sg1158
I00
sbsbsI139977454884816
g0
(g1137
g2
Ntp1196
Rp1197
(dp1198
g48
I2
sg1141
g0
(g1142
g2
Ntp1199
Rp1200
(dp1201
g1146
I00
sg1147
Nsg1148
g71
(g72
(I0
tp1202
g74
tp1203
Rp1204
(I1
(I1
I2
tp1205
g81
I00
S'\x00\x00\x00\x00\x00\x00\xf0?\x9a\x99\x99\x99\x99\x99\xd9?'
p1206
tp1207
bsg1155
I00
sg1156
F0.1111111111111111
sg1157
I1
sg1158
I00
sbsg1159
g0
(g1142
g2
Ntp1208
Rp1209
(dp1210
g1146
I00
sg1147
Nsg1148
g1204
sg1155
I00
sg1156
F0.1111111111111111
sg1157
I1
sg1158
I00
sbsg148
g1133
sg50
g7
sg51
(dp1211
sg1164
g0
(g1142
g2
Ntp1212
Rp1213
(dp1214
g1146
I00
sg1147
Nsg1148
g1204
sg1155
I00
sg1156
F0.1111111111111111
sg1157
I1
sg1158
I00
sbsbsI139977454921936
g0
(g1137
g2
Ntp1215
Rp1216
(dp1217
g48
I2
sg1141
g0
(g1142
g2
Ntp1218
Rp1219
(dp1220
g1146
I00
sg1147
Nsg1148
g71
(g72
(I0
tp1221
g74
tp1222
Rp1223
(I1
(I1
I2
tp1224
g81
I00
S'\x00\x00\x00\x00\x00\x00\xf0?\x00\x00\x00\x00\x00\x00\xf0?'
p1225
tp1226
bsg1155
I00
sg1156
F0.1111111111111111
sg1157
I1
sg1158
I00
sbsg1159
g0
(g1142
g2
Ntp1227
Rp1228
(dp1229
g1146
I00
sg1147
Nsg1148
g1223
sg1155
I00
sg1156
F0.1111111111111111
sg1157
I1
sg1158
I00
sbsg148
g1133
sg50
g7
sg51
(dp1230
sg1164
g0
(g1142
g2
Ntp1231
Rp1232
(dp1233
g1146
I00
sg1147
Nsg1148
g1223
sg1155
I00
sg1156
F0.1111111111111111
sg1157
I1
sg1158
I00
sbsbsI139977454920848
g0
(g1137
g2
Ntp1234
Rp1235
(dp1236
g48
I2
sg1141
g0
(g1142
g2
Ntp1237
Rp1238
(dp1239
g1146
I00
sg1147
Nsg1148
g71
(g72
(I0
tp1240
g74
tp1241
Rp1242
(I1
(I1
I2
tp1243
g81
I00
S'\x00\x00\x00\x00\x00\x00\x00\x00\x00\x00\x00\x00\x00\x00\x00\x00'
p1244
tp1245
bsg1155
I00
sg1156
F0.1111111111111111
sg1157
I1
sg1158
I00
sbsg1159
g0
(g1142
g2
Ntp1246
Rp1247
(dp1248
g1146
I00
sg1147
Nsg1148
g1242
sg1155
I00
sg1156
F0.1111111111111111
sg1157
I1
sg1158
I00
sbsg148
g1133
sg50
g7
sg51
(dp1249
sg1164
g0
(g1142
g2
Ntp1250
Rp1251
(dp1252
g1146
I00
sg1147
Nsg1148
g1242
sg1155
I00
sg1156
F0.1111111111111111
sg1157
I1
sg1158
I00
sbsbsI139977454920912
g0
(g1137
g2
Ntp1253
Rp1254
(dp1255
g48
I2
sg1141
g0
(g1142
g2
Ntp1256
Rp1257
(dp1258
g1146
I00
sg1147
Nsg1148
g71
(g72
(I0
tp1259
g74
tp1260
Rp1261
(I1
(I1
I2
tp1262
g81
I00
S'\x00\x00\x00\x00\x00\x00\xf0?\x00\x00\x00\x00\x00\x00\x00\x00'
p1263
tp1264
bsg1155
I00
sg1156
F0.1111111111111111
sg1157
I1
sg1158
I00
sbsg1159
g0
(g1142
g2
Ntp1265
Rp1266
(dp1267
g1146
I00
sg1147
Nsg1148
g1261
sg1155
I00
sg1156
F0.1111111111111111
sg1157
I1
sg1158
I00
sbsg148
g1133
sg50
g7
sg51
(dp1268
sg1164
g0
(g1142
g2
Ntp1269
Rp1270
(dp1271
g1146
I00
sg1147
Nsg1148
g1261
sg1155
I00
sg1156
F0.1111111111111111
sg1157
I1
sg1158
I00
sbsbsI139977455322384
g0
(g60
g2
Ntp1272
Rp1273
(dp1274
g48
I2
sg64
I2
sg65
g1133
sg115
I2
sg116
g0
(g195
g2
Ntp1275
Rp1276
(dp1277
g48
I2
sg70
g71
(g72
(I0
tp1278
g74
tp1279
Rp1280
(I1
(I3
I3
tp1281
g81
I00
S'\x00\x00\x00\x00\x00\x00\xf0?\x00\x00\x00\x00\x00\x00\x00\x00\x8e\xe38\x8e\xe38\x16\xc0\x00\x00\x00\x00\x00\x00\x00\x00\x00\x00\x00\x00\x00\x00\xf0?\x00\x00\x00\x00\x00\x00\x00\x00\x00\x00\x00\x00\x00\x00\x00\x00\x00\x00\x00\x00\x00\x00\x00\x00\x00\x00\x00\x00\x00\x00\xf0?'
p1282
tp1283
bsg205
g186
sg49
Nsg206
(F-0.05555555555555555
I0
tp1284
sg50
g7
sg51
(dp1285
I139977455322384
g1273
ssbsg51
(dp1286
sg50
g7
sbsI139977454844816
g0
(g1137
g2
Ntp1287
Rp1288
(dp1289
g48
I2
sg1141
g0
(g1142
g2
Ntp1290
Rp1291
(dp1292
g1146
I00
sg1147
Nsg1148
g71
(g72
(I0
tp1293
g74
tp1294
Rp1295
(I1
(I1
I2
tp1296
g81
I00
S'\x00\x00\x00\x00\x00\x00\xf0?433333\xe3?'
p1297
tp1298
bsg1155
I00
sg1156
F0.1111111111111111
sg1157
I1
sg1158
I00
sbsg1159
g0
(g1142
g2
Ntp1299
Rp1300
(dp1301
g1146
I00
sg1147
Nsg1148
g1295
sg1155
I00
sg1156
F0.1111111111111111
sg1157
I1
sg1158
I00
sbsg148
g1133
sg50
g7
sg51
(dp1302
sg1164
g0
(g1142
g2
Ntp1303
Rp1304
(dp1305
g1146
I00
sg1147
Nsg1148
g1295
sg1155
I00
sg1156
F0.1111111111111111
sg1157
I1
sg1158
I00
sbsbsI139977455449488
g0
(g60
g2
Ntp1306
Rp1307
(dp1308
g48
I2
sg64
I2
sg65
g1133
sg115
I2
sg116
g0
(g195
g2
Ntp1309
Rp1310
(dp1311
g48
I2
sg70
Nsg205
g186
sg49
Nsg206
(F0.05555555555555555
I0
tp1312
sg50
g7
sg51
(dp1313
I139977455449488
g1307
ssbsg51
(dp1314
sg50
g7
sbsI139977455323984
g0
(g60
g2
Ntp1315
Rp1316
(dp1317
g48
I2
sg64
I2
sg65
g1133
sg115
I2
sg116
g0
(g195
g2
Ntp1318
Rp1319
(dp1320
g48
I2
sg70
Nsg205
g186
sg49
Nsg206
(F0.05555555555555555
I0
tp1321
sg50
g7
sg51
(dp1322
I139977455323984
g1316
ssbsg51
(dp1323
sg50
g7
sbsI139977454921616
g0
(g1137
g2
Ntp1324
Rp1325
(dp1326
g48
I2
sg1141
g0
(g1142
g2
Ntp1327
Rp1328
(dp1329
g1146
I00
sg1147
Nsg1148
g71
(g72
(I0
tp1330
g74
tp1331
Rp1332
(I1
(I1
I2
tp1333
g81
I00
S'\x00\x00\x00\x00\x00\x00\x00\x00\x00\x00\x00\x00\x00\x00\xf0?'
p1334
tp1335
bsg1155
I00
sg1156
F0.1111111111111111
sg1157
I1
sg1158
I00
sbsg1159
g0
(g1142
g2
Ntp1336
Rp1337
(dp1338
g1146
I00
sg1147
Nsg1148
g1332
sg1155
I00
sg1156
F0.1111111111111111
sg1157
I1
sg1158
I00
sbsg148
g1133
sg50
g7
sg51
(dp1339
sg1164
g0
(g1142
g2
Ntp1340
Rp1341
(dp1342
g1146
I00
sg1147
Nsg1148
g1332
sg1155
I00
sg1156
F0.1111111111111111
sg1157
I1
sg1158
I00
sbsbsI139977454843408
g0
(g1137
g2
Ntp1343
Rp1344
(dp1345
g48
I2
sg1141
g0
(g1142
g2
Ntp1346
Rp1347
(dp1348
g1146
I00
sg1147
Nsg1148
g71
(g72
(I0
tp1349
g74
tp1350
Rp1351
(I1
(I1
I2
tp1352
g81
I00
S'\x00\x00\x00\x00\x00\x00\xf0?\x9a\x99\x99\x99\x99\x99\xe9?'
p1353
tp1354
bsg1155
I00
sg1156
F0.1111111111111111
sg1157
I1
sg1158
I00
sbsg1159
g0
(g1142
g2
Ntp1355
Rp1356
(dp1357
g1146
I00
sg1147
Nsg1148
g1351
sg1155
I00
sg1156
F0.1111111111111111
sg1157
I1
sg1158
I00
sbsg148
g1133
sg50
g7
sg51
(dp1358
sg1164
g0
(g1142
g2
Ntp1359
Rp1360
(dp1361
g1146
I00
sg1147
Nsg1148
g1351
sg1155
I00
sg1156
F0.1111111111111111
sg1157
I1
sg1158
I00
sbsbsI139977454882960
g0
(g1137
g2
Ntp1362
Rp1363
(dp1364
g48
I2
sg1141
g0
(g1142
g2
Ntp1365
Rp1366
(dp1367
g1146
I00
sg1147
Nsg1148
g71
(g72
(I0
tp1368
g74
tp1369
Rp1370
(I1
(I1
I2
tp1371
g81
I00
S'\x00\x00\x00\x00\x00\x00\x00\x00433333\xe3?'
p1372
tp1373
bsg1155
I00
sg1156
F0.1111111111111111
sg1157
I1
sg1158
I00
sbsg1159
g0
(g1142
g2
Ntp1374
Rp1375
(dp1376
g1146
I00
sg1147
Nsg1148
g1370
sg1155
I00
sg1156
F0.1111111111111111
sg1157
I1
sg1158
I00
sbsg148
g1133
sg50
g7
sg51
(dp1377
sg1164
g0
(g1142
g2
Ntp1378
Rp1379
(dp1380
g1146
I00
sg1147
Nsg1148
g1370
sg1155
I00
sg1156
F0.1111111111111111
sg1157
I1
sg1158
I00
sbsbsI139977454843280
g0
(g1137
g2
Ntp1381
Rp1382
(dp1383
g48
I2
sg1141
g0
(g1142
g2
Ntp1384
Rp1385
(dp1386
g1146
I00
sg1147
Nsg1148
g71
(g72
(I0
tp1387
g74
tp1388
Rp1389
(I1
(I1
I2
tp1390
g81
I00
S'\x00\x00\x00\x00\x00\x00\x00\x00\x9a\x99\x99\x99\x99\x99\xe9?'
p1391
tp1392
bsg1155
I00
sg1156
F0.1111111111111111
sg1157
I1
sg1158
I00
sbsg1159
g0
(g1142
g2
Ntp1393
Rp1394
(dp1395
g1146
I00
sg1147
Nsg1148
g1389
sg1155
I00
sg1156
F0.1111111111111111
sg1157
I1
sg1158
I00
sbsg148
g1133
sg50
g7
sg51
(dp1396
sg1164
g0
(g1142
g2
Ntp1397
Rp1398
(dp1399
g1146
I00
sg1147
Nsg1148
g1389
sg1155
I00
sg1156
F0.1111111111111111
sg1157
I1
sg1158
I00
sbsbsI139977455273936
g0
(g60
g2
Ntp1400
Rp1401
(dp1402
g48
I2
sg64
I2
sg65
g1133
sg115
I2
sg116
g0
(g195
g2
Ntp1403
Rp1404
(dp1405
g48
I2
sg70
Nsg205
g186
sg49
Nsg206
(F-0.05555555555555555
I0
tp1406
sg50
g7
sg51
(dp1407
I139977455273936
g1401
ssbsg51
(dp1408
sg50
g7
sbsI139977455272592
g0
(g60
g2
Ntp1409
Rp1410
(dp1411
g48
I2
sg64
I2
sg65
g1133
sg115
I2
sg116
g0
(g195
g2
Ntp1412
Rp1413
(dp1414
g48
I2
sg70
Nsg205
g186
sg49
Nsg206
(F0.05555555555555555
I0
tp1415
sg50
g7
sg51
(dp1416
I139977455272592
g1410
ssbsg51
(dp1417
sg50
g7
sbsI139977454885584
g0
(g1137
g2
Ntp1418
Rp1419
(dp1420
g48
I2
sg1141
g0
(g1142
g2
Ntp1421
Rp1422
(dp1423
g1146
I00
sg1147
Nsg1148
g71
(g72
(I0
tp1424
g74
tp1425
Rp1426
(I1
(I1
I2
tp1427
g81
I00
S'\x00\x00\x00\x00\x00\x00\xf0?\x9a\x99\x99\x99\x99\x99\xc9?'
p1428
tp1429
bsg1155
I00
sg1156
F0.1111111111111111
sg1157
I1
sg1158
I00
sbsg1159
g0
(g1142
g2
Ntp1430
Rp1431
(dp1432
g1146
I00
sg1147
Nsg1148
g1426
sg1155
I00
sg1156
F0.1111111111111111
sg1157
I1
sg1158
I00
sbsg148
g1133
sg50
g7
sg51
(dp1433
sg1164
g0
(g1142
g2
Ntp1434
Rp1435
(dp1436
g1146
I00
sg1147
Nsg1148
g1426
sg1155
I00
sg1156
F0.1111111111111111
sg1157
I1
sg1158
I00
sbsbssg50
g7
sbssg50
g7
sbssVinput_dims
p1437
I2
sVchild
p1438
g0
(g478
g2
Ntp1439
Rp1440
(dp1441
g48
I0
sg70
g71
(g72
(I0
tp1442
g74
tp1443
Rp1444
(I1
(I3
I3
tp1445
g81
I00
S'\x00\x00\x00\x00\x00\x00\xf0?\x00\x00\x00\x00\x00\x00\x00\x00\x00\x00\x00\x00\x00\x00\x00\x00\x00\x00\x00\x00\x00\x00\x00\x00\x00\x00\x00\x00\x00\x00\xf0?\x00\x00\x00\x00\x00\x00\x00\x00\x00\x00\x00\x00\x00\x00\x00\x00\x00\x00\x00\x00\x00\x00\x00\x00\x00\x00\x00\x00\x00\x00\xf0?'
p1446
tp1447
bsg55
g0
(g44
g2
Ntp1448
Rp1449
(dp1450
g48
I1
sg49
Nsg50
g7
sg51
(dp1451
I139977455450192
g1440
ssbsg56
g0
(g44
g2
Ntp1452
Rp1453
(dp1454
g48
I1
sg49
Nsg50
g7
sg51
(dp1455
I139977455450192
g1440
ssbsg49
g0
(g117
g2
Ntp1456
Rp1457
(dp1458
g48
I0
sg49
Nsg70
g71
(g72
(I0
tp1459
g74
tp1460
Rp1461
(I1
(I3
I3
tp1462
g81
I00
S'\x00\x00\x00\x00\x00\x00\xf0?\x00\x00\x00\x00\x00\x00\x00\x00\x00\x00\x00\x00\x00\x00\x00\x00\x00\x00\x00\x00\x00\x00\x00\x00\x00\x00\x00\x00\x00\x00\xf0?\x00\x00\x00\x00\x00\x00\x00\x00\x00\x00\x00\x00\x00\x00\x00\x00\x00\x00\x00\x00\x00\x00\x00\x00\x00\x00\x00\x00\x00\x00\xf0?'
p1463
tp1464
bsg50
g7
sg51
(dp1465
sbsg50
g7
sg51
(dp1466
I139977455656784
g1123
ssbsbsg106
g71
(g72
(I0
tp1467
g74
tp1468
Rp1469
(I1
(I2
I2
tp1470
g81
I00
S'\x00\x00\x00\x00\x00\x00\x00\x00\x00\x00\x00\x00\x00\x00\x00\x00\x00\x00\x00\x00\x00\x00\xf0?\x00\x00\x00\x00\x00\x00\xf0?'
p1471
tp1472
bsg51
(dp1473
I139977455656272
g1093
ssg50
g7
sbsg70
g71
(g72
(I0
tp1474
g74
tp1475
Rp1476
(I1
(I3
I3
tp1477
g81
I00
S'\x00\x00\x00\x00\x00\x00\xf0?\x00\x00\x00\x00\x00\x00\x00\x00\x00\x00\x00\x00\x00\x00\x00\x80\x00\x00\x00\x00\x00\x00\x00\x00\x00\x00\x00\x00\x00\x00\xf0?\x00\x00\x00\x00\x00\x00\x00\x80\x00\x00\x00\x00\x00\x00\x00\x00\x00\x00\x00\x00\x00\x00\x00\x00\x00\x00\x00\x00\x00\x00\xf0?'
p1478
tp1479
bsg49
g0
(g117
g2
Ntp1480
Rp1481
(dp1482
g48
I0
sg49
Nsg70
g71
(g72
(I0
tp1483
g74
tp1484
Rp1485
(I1
(I3
I3
tp1486
g81
I00
S'\x00\x00\x00\x00\x00\x00\xf0?\x00\x00\x00\x00\x00\x00\x00\x00\x00\x00\x00\x00\x00\x00\x00\x00\x00\x00\x00\x00\x00\x00\x00\x00\x00\x00\x00\x00\x00\x00\xf0?\x00\x00\x00\x00\x00\x00\x00\x00\x00\x00\x00\x00\x00\x00\x00\x00\x00\x00\x00\x00\x00\x00\x00\x00\x00\x00\x00\x00\x00\x00\xf0?'
p1487
tp1488
bsg50
g7
sg51
(dp1489
sbsg50
g7
sg51
(dp1490
I139977455710288
g1089
ssbsg115
I2
sg116
g217
sg51
(dp1491
I139977455710352
g1129
ssg50
g7
sbsI139977455272016
g0
(g60
g2
Ntp1492
Rp1493
(dp1494
g48
I2
sg64
I2
sg65
g0
(g60
g2
Ntp1495
Rp1496
(dp1497
g48
I1
sg64
I2
sg65
g0
(g66
g2
Ntp1498
Rp1499
(dp1500
g48
I1
sg70
Nsg49
Nsg86
g0
(g87
g2
Ntp1501
Rp1502
(dp1503
g48
I1
sg91
g71
(g72
(I0
tp1504
g74
tp1505
Rp1506
(I1
(I2
tp1507
g81
I00
S'H\xaf\xbc\x9a\xf2\xd7z>H\xaf\xbc\x9a\xf2\xd7z>'
p1508
tp1509
bsg51
(dp1510
I139977455760016
g1499
ssg99
g71
(g72
(I0
tp1511
g74
tp1512
Rp1513
(I1
(I2
I2
tp1514
g81
I00
S'\x00\x00\x00\x00\x00\x00\x00\x00\x00\x00\x00\x00\x00\x00\x00\x00\x00\x00\x00\x00\x00\x00\xf0?\x00\x00\x00\x00\x00\x00\xf0?'
p1515
tp1516
bsg106
g71
(g72
(I0
tp1517
g74
tp1518
Rp1519
(I1
(I2
I2
tp1520
g81
I00
S'\x00\x00\x00\x00\x00\x00\x00\x00\x00\x00\x00\x00\x00\x00\x00\x00\x00\x00\x00\x00\x00\x00\xf0?\x00\x00\x00\x00\x00\x00\xf0?'
p1521
tp1522
bsg113
I01
sg50
g7
sbsg51
(dp1523
I139977455761488
g1496
ssg50
g7
sbsg115
I2
sg116
g0
(g117
g2
Ntp1524
Rp1525
(dp1526
g48
I2
sg49
Nsg70
g71
(g72
(I0
tp1527
g74
tp1528
Rp1529
(I1
(I3
I3
tp1530
g81
I00
S'\x00\x00\x00\x00\x00\x00\xf0?\x00\x00\x00\x00\x00\x00\x00\x00\x00\x00\x00\x00\x00\x00\x00\x00\x00\x00\x00\x00\x00\x00\x00\x00\x00\x00\x00\x00\x00\x00\xf0?\x00\x00\x00\x00\x00\x00\x00\x00\x00\x00\x00\x00\x00\x00\x00\x00\x00\x00\x00\x00\x00\x00\x00\x00\x00\x00\x00\x00\x00\x00\xf0?'
p1531
tp1532
bsg50
g7
sg51
(dp1533
I139977455761488
g1496
ssbsg51
(dp1534
I139977455272016
g1493
ssg50
g7
sbsg115
I2
sg116
g217
sg51
(dp1535
I139977455272336
g0
(g158
g2
Ntp1536
Rp1537
(dp1538
g48
I2
sg162
g0
(g87
g2
Ntp1539
Rp1540
(dp1541
g48
I1
sg91
g71
(g72
(I0
tp1542
g74
tp1543
Rp1544
(I1
(I2
tp1545
g81
I00
S'H\xaf\xbc\x9a\xf2\xd7z>H\xaf\xbc\x9a\xf2\xd7z>'
p1546
tp1547
bsg51
(dp1548
I139977455272336
g1537
ssg99
g71
(g72
(I0
tp1549
g74
tp1550
Rp1551
(I1
(I2
I2
tp1552
g81
I00
S'\x00\x00\x00\x00\x00\x00\x00\x00\x00\x00\x00\x00\x00\x00\x00\x00\x00\x00\x00\x00\x00\x00\xf0?\x00\x00\x00\x00\x00\x00\xf0?'
p1553
tp1554
bsg106
g71
(g72
(I0
tp1555
g74
tp1556
Rp1557
(I1
(I2
I2
tp1558
g81
I00
S'\x00\x00\x00\x00\x00\x00\x00\x00\x00\x00\x00\x00\x00\x00\x00\x00\x00\x00\x00\x00\x00\x00\xf0?\x00\x00\x00\x00\x00\x00\xf0?'
p1559
tp1560
bsg113
I01
sg50
g7
sbsg148
g1493
sg106
Nsg51
(dp1561
sg50
g7
sbssg50
g7
sbsI139977455034320
g0
(g60
g2
Ntp1562
Rp1563
(dp1564
g48
I2
sg64
I2
sg65
g0
(g60
g2
Ntp1565
Rp1566
(dp1567
g48
I1
sg64
I2
sg65
g0
(g66
g2
Ntp1568
Rp1569
(dp1570
g48
I1
sg70
Nsg49
Nsg86
g0
(g87
g2
Ntp1571
Rp1572
(dp1573
g48
I1
sg91
g71
(g72
(I0
tp1574
g74
tp1575
Rp1576
(I1
(I2
tp1577
g81
I00
S'H\xaf\xbc\x9a\xf2\xd7z>H\xaf\xbc\x9a\xf2\xd7z>'
p1578
tp1579
bsg51
(dp1580
I139977455034128
g1569
ssg99
g71
(g72
(I0
tp1581
g74
tp1582
Rp1583
(I1
(I2
I2
tp1584
g81
I00
S'\x00\x00\x00\x00\x00\x00\x00\x00\x00\x00\x00\x00\x00\x00\x00\x00\x00\x00\x00\x00\x00\x00\xf0?\x00\x00\x00\x00\x00\x00\xf0?'
p1585
tp1586
bsg106
g71
(g72
(I0
tp1587
g74
tp1588
Rp1589
(I1
(I2
I2
tp1590
g81
I00
S'\x00\x00\x00\x00\x00\x00\x00\x00\x00\x00\x00\x00\x00\x00\x00\x00\x00\x00\x00\x00\x00\x00\xf0?\x00\x00\x00\x00\x00\x00\xf0?'
p1591
tp1592
bsg113
I01
sg50
g7
sbsg51
(dp1593
I139977455034256
g1566
ssg50
g7
sbsg115
I2
sg116
g0
(g117
g2
Ntp1594
Rp1595
(dp1596
g48
I2
sg49
Nsg70
g71
(g72
(I0
tp1597
g74
tp1598
Rp1599
(I1
(I3
I3
tp1600
g81
I00
S'\x00\x00\x00\x00\x00\x00\xf0?\x00\x00\x00\x00\x00\x00\x00\x00\x00\x00\x00\x00\x00\x00\x00\x00\x00\x00\x00\x00\x00\x00\x00\x00\x00\x00\x00\x00\x00\x00\xf0?\x00\x00\x00\x00\x00\x00\x00\x00\x00\x00\x00\x00\x00\x00\x00\x00\x00\x00\x00\x00\x00\x00\x00\x00\x00\x00\x00\x00\x00\x00\xf0?'
p1601
tp1602
bsg50
g7
sg51
(dp1603
I139977455034256
g1566
ssbsg51
(dp1604
I139977455034320
g1563
ssg50
g7
sbsg115
I2
sg116
g217
sg51
(dp1605
I139977455087760
g0
(g158
g2
Ntp1606
Rp1607
(dp1608
g48
I2
sg162
g0
(g87
g2
Ntp1609
Rp1610
(dp1611
g48
I1
sg91
g71
(g72
(I0
tp1612
g74
tp1613
Rp1614
(I1
(I2
tp1615
g81
I00
S'H\xaf\xbc\x9a\xf2\xd7z>H\xaf\xbc\x9a\xf2\xd7z>'
p1616
tp1617
bsg51
(dp1618
I139977455087760
g1607
ssg99
g71
(g72
(I0
tp1619
g74
tp1620
Rp1621
(I1
(I2
I2
tp1622
g81
I00
S'\x00\x00\x00\x00\x00\x00\x00\x00\x00\x00\x00\x00\x00\x00\x00\x00\x00\x00\x00\x00\x00\x00\xf0?\x00\x00\x00\x00\x00\x00\xf0?'
p1623
tp1624
bsg106
g71
(g72
(I0
tp1625
g74
tp1626
Rp1627
(I1
(I2
I2
tp1628
g81
I00
S'\x00\x00\x00\x00\x00\x00\x00\x00\x00\x00\x00\x00\x00\x00\x00\x00\x00\x00\x00\x00\x00\x00\xf0?\x00\x00\x00\x00\x00\x00\xf0?'
p1629
tp1630
bsg113
I01
sg50
g7
sbsg148
g1563
sg106
Nsg51
(dp1631
sg50
g7
sbssg50
g7
sbsI139977455710544
g1133
sI139977455504912
g0
(g60
g2
Ntp1632
Rp1633
(dp1634
g48
I2
sg64
I2
sg65
g0
(g60
g2
Ntp1635
Rp1636
(dp1637
g48
I1
sg64
I2
sg65
g0
(g66
g2
Ntp1638
Rp1639
(dp1640
g48
I1
sg70
Nsg49
Nsg86
g0
(g87
g2
Ntp1641
Rp1642
(dp1643
g48
I1
sg91
g71
(g72
(I0
tp1644
g74
tp1645
Rp1646
(I1
(I2
tp1647
g81
I00
S'H\xaf\xbc\x9a\xf2\xd7z>H\xaf\xbc\x9a\xf2\xd7z>'
p1648
tp1649
bsg51
(dp1650
I139977455504720
g1639
ssg99
g71
(g72
(I0
tp1651
g74
tp1652
Rp1653
(I1
(I2
I2
tp1654
g81
I00
S'\x00\x00\x00\x00\x00\x00\x00\x00\x00\x00\x00\x00\x00\x00\x00\x00\x00\x00\x00\x00\x00\x00\xf0?\x00\x00\x00\x00\x00\x00\xf0?'
p1655
tp1656
bsg106
g71
(g72
(I0
tp1657
g74
tp1658
Rp1659
(I1
(I2
I2
tp1660
g81
I00
S'\x00\x00\x00\x00\x00\x00\x00\x00\x00\x00\x00\x00\x00\x00\x00\x00\x00\x00\x00\x00\x00\x00\xf0?\x00\x00\x00\x00\x00\x00\xf0?'
p1661
tp1662
bsg113
I01
sg50
g7
sbsg51
(dp1663
I139977455504848
g1636
ssg50
g7
sbsg115
I2
sg116
g0
(g117
g2
Ntp1664
Rp1665
(dp1666
g48
I2
sg49
Nsg70
g71
(g72
(I0
tp1667
g74
tp1668
Rp1669
(I1
(I3
I3
tp1670
g81
I00
S'\x00\x00\x00\x00\x00\x00\xf0?\x00\x00\x00\x00\x00\x00\x00\x00\x00\x00\x00\x00\x00\x00\x00\x00\x00\x00\x00\x00\x00\x00\x00\x00\x00\x00\x00\x00\x00\x00\xf0?\x00\x00\x00\x00\x00\x00\x00\x00\x00\x00\x00\x00\x00\x00\x00\x00\x00\x00\x00\x00\x00\x00\x00\x00\x00\x00\x00\x00\x00\x00\xf0?'
p1671
tp1672
bsg50
g7
sg51
(dp1673
I139977455504848
g1636
ssbsg51
(dp1674
I139977455504912
g1633
ssg50
g7
sbsg115
I2
sg116
g217
sg51
(dp1675
I139977455505040
g0
(g158
g2
Ntp1676
Rp1677
(dp1678
g48
I2
sg162
g0
(g87
g2
Ntp1679
Rp1680
(dp1681
g48
I1
sg91
g71
(g72
(I0
tp1682
g74
tp1683
Rp1684
(I1
(I2
tp1685
g81
I00
S'H\xaf\xbc\x9a\xf2\xd7z>H\xaf\xbc\x9a\xf2\xd7z>'
p1686
tp1687
bsg51
(dp1688
I139977455505040
g1677
ssg99
g71
(g72
(I0
tp1689
g74
tp1690
Rp1691
(I1
(I2
I2
tp1692
g81
I00
S'\x00\x00\x00\x00\x00\x00\x00\x00\x00\x00\x00\x00\x00\x00\x00\x00\x00\x00\x00\x00\x00\x00\xf0?\x00\x00\x00\x00\x00\x00\xf0?'
p1693
tp1694
bsg106
g71
(g72
(I0
tp1695
g74
tp1696
Rp1697
(I1
(I2
I2
tp1698
g81
I00
S'\x00\x00\x00\x00\x00\x00\x00\x00\x00\x00\x00\x00\x00\x00\x00\x00\x00\x00\x00\x00\x00\x00\xf0?\x00\x00\x00\x00\x00\x00\xf0?'
p1699
tp1700
bsg113
I01
sg50
g7
sbsg148
g1633
sg106
Nsg51
(dp1701
sg50
g7
sbssg50
g7
sbsI139977455141328
g0
(g60
g2
Ntp1702
Rp1703
(dp1704
g48
I2
sg64
I2
sg65
g0
(g60
g2
Ntp1705
Rp1706
(dp1707
g48
I1
sg64
I2
sg65
g0
(g66
g2
Ntp1708
Rp1709
(dp1710
g48
I1
sg70
Nsg49
Nsg86
g0
(g87
g2
Ntp1711
Rp1712
(dp1713
g48
I1
sg91
g71
(g72
(I0
tp1714
g74
tp1715
Rp1716
(I1
(I2
tp1717
g81
I00
S'H\xaf\xbc\x9a\xf2\xd7z>H\xaf\xbc\x9a\xf2\xd7z>'
p1718
tp1719
bsg51
(dp1720
I139977455141136
g1709
ssg99
g71
(g72
(I0
tp1721
g74
tp1722
Rp1723
(I1
(I2
I2
tp1724
g81
I00
S'\x00\x00\x00\x00\x00\x00\x00\x00\x00\x00\x00\x00\x00\x00\x00\x00\x00\x00\x00\x00\x00\x00\xf0?\x00\x00\x00\x00\x00\x00\xf0?'
p1725
tp1726
bsg106
g71
(g72
(I0
tp1727
g74
tp1728
Rp1729
(I1
(I2
I2
tp1730
g81
I00
S'\x00\x00\x00\x00\x00\x00\x00\x00\x00\x00\x00\x00\x00\x00\x00\x00\x00\x00\x00\x00\x00\x00\xf0?\x00\x00\x00\x00\x00\x00\xf0?'
p1731
tp1732
bsg113
I01
sg50
g7
sbsg51
(dp1733
I139977455141264
g1706
ssg50
g7
sbsg115
I2
sg116
g0
(g117
g2
Ntp1734
Rp1735
(dp1736
g48
I2
sg49
Nsg70
g71
(g72
(I0
tp1737
g74
tp1738
Rp1739
(I1
(I3
I3
tp1740
g81
I00
S'\x00\x00\x00\x00\x00\x00\xf0?\x00\x00\x00\x00\x00\x00\x00\x00\x00\x00\x00\x00\x00\x00\x00\x00\x00\x00\x00\x00\x00\x00\x00\x00\x00\x00\x00\x00\x00\x00\xf0?\x00\x00\x00\x00\x00\x00\x00\x00\x00\x00\x00\x00\x00\x00\x00\x00\x00\x00\x00\x00\x00\x00\x00\x00\x00\x00\x00\x00\x00\x00\xf0?'
p1741
tp1742
bsg50
g7
sg51
(dp1743
I139977455141264
g1706
ssbsg51
(dp1744
I139977455141328
g1703
ssg50
g7
sbsg115
I2
sg116
g217
sg51
(dp1745
I139977455141456
g0
(g158
g2
Ntp1746
Rp1747
(dp1748
g48
I2
sg162
g0
(g87
g2
Ntp1749
Rp1750
(dp1751
g48
I1
sg91
g71
(g72
(I0
tp1752
g74
tp1753
Rp1754
(I1
(I2
tp1755
g81
I00
S'H\xaf\xbc\x9a\xf2\xd7z>H\xaf\xbc\x9a\xf2\xd7z>'
p1756
tp1757
bsg51
(dp1758
I139977455141456
g1747
ssg99
g71
(g72
(I0
tp1759
g74
tp1760
Rp1761
(I1
(I2
I2
tp1762
g81
I00
S'\x00\x00\x00\x00\x00\x00\x00\x00\x00\x00\x00\x00\x00\x00\x00\x00\x00\x00\x00\x00\x00\x00\xf0?\x00\x00\x00\x00\x00\x00\xf0?'
p1763
tp1764
bsg106
g71
(g72
(I0
tp1765
g74
tp1766
Rp1767
(I1
(I2
I2
tp1768
g81
I00
S'\x00\x00\x00\x00\x00\x00\x00\x00\x00\x00\x00\x00\x00\x00\x00\x00\x00\x00\x00\x00\x00\x00\xf0?\x00\x00\x00\x00\x00\x00\xf0?'
p1769
tp1770
bsg113
I01
sg50
g7
sbsg148
g1703
sg106
Nsg51
(dp1771
sg50
g7
sbssg50
g7
sbsI139977455321744
g0
(g60
g2
Ntp1772
Rp1773
(dp1774
g48
I2
sg64
I2
sg65
g0
(g60
g2
Ntp1775
Rp1776
(dp1777
g48
I1
sg64
I2
sg65
g0
(g66
g2
Ntp1778
Rp1779
(dp1780
g48
I1
sg70
Nsg49
Nsg86
g0
(g87
g2
Ntp1781
Rp1782
(dp1783
g48
I1
sg91
g71
(g72
(I0
tp1784
g74
tp1785
Rp1786
(I1
(I2
tp1787
g81
I00
S'H\xaf\xbc\x9a\xf2\xd7z>H\xaf\xbc\x9a\xf2\xd7z>'
p1788
tp1789
bsg51
(dp1790
I139977455273168
g1779
ssg99
g71
(g72
(I0
tp1791
g74
tp1792
Rp1793
(I1
(I2
I2
tp1794
g81
I00
S'\x00\x00\x00\x00\x00\x00\x00\x00\x00\x00\x00\x00\x00\x00\x00\x00\x00\x00\x00\x00\x00\x00\xf0?\x00\x00\x00\x00\x00\x00\xf0?'
p1795
tp1796
bsg106
g71
(g72
(I0
tp1797
g74
tp1798
Rp1799
(I1
(I2
I2
tp1800
g81
I00
S'\x00\x00\x00\x00\x00\x00\x00\x00\x00\x00\x00\x00\x00\x00\x00\x00\x00\x00\x00\x00\x00\x00\xf0?\x00\x00\x00\x00\x00\x00\xf0?'
p1801
tp1802
bsg113
I01
sg50
g7
sbsg51
(dp1803
I139977455321808
g1776
ssg50
g7
sbsg115
I2
sg116
g0
(g117
g2
Ntp1804
Rp1805
(dp1806
g48
I2
sg49
Nsg70
g71
(g72
(I0
tp1807
g74
tp1808
Rp1809
(I1
(I3
I3
tp1810
g81
I00
S'\x00\x00\x00\x00\x00\x00\xf0?\x00\x00\x00\x00\x00\x00\x00\x00\x00\x00\x00\x00\x00\x00\x00\x00\x00\x00\x00\x00\x00\x00\x00\x00\x00\x00\x00\x00\x00\x00\xf0?\x00\x00\x00\x00\x00\x00\x00\x00\x00\x00\x00\x00\x00\x00\x00\x00\x00\x00\x00\x00\x00\x00\x00\x00\x00\x00\x00\x00\x00\x00\xf0?'
p1811
tp1812
bsg50
g7
sg51
(dp1813
I139977455321808
g1776
ssbsg51
(dp1814
I139977455321744
g1773
ssg50
g7
sbsg115
I2
sg116
g217
sg51
(dp1815
I139977455322256
g0
(g158
g2
Ntp1816
Rp1817
(dp1818
g48
I2
sg162
g0
(g87
g2
Ntp1819
Rp1820
(dp1821
g48
I1
sg91
g71
(g72
(I0
tp1822
g74
tp1823
Rp1824
(I1
(I2
tp1825
g81
I00
S'H\xaf\xbc\x9a\xf2\xd7z>H\xaf\xbc\x9a\xf2\xd7z>'
p1826
tp1827
bsg51
(dp1828
I139977455322256
g1817
ssg99
g71
(g72
(I0
tp1829
g74
tp1830
Rp1831
(I1
(I2
I2
tp1832
g81
I00
S'\x00\x00\x00\x00\x00\x00\x00\x00\x00\x00\x00\x00\x00\x00\x00\x00\x00\x00\x00\x00\x00\x00\xf0?\x00\x00\x00\x00\x00\x00\xf0?'
p1833
tp1834
bsg106
g71
(g72
(I0
tp1835
g74
tp1836
Rp1837
(I1
(I2
I2
tp1838
g81
I00
S'\x00\x00\x00\x00\x00\x00\x00\x00\x00\x00\x00\x00\x00\x00\x00\x00\x00\x00\x00\x00\x00\x00\xf0?\x00\x00\x00\x00\x00\x00\xf0?'
p1839
tp1840
bsg113
I01
sg50
g7
sbsg148
g1773
sg106
Nsg51
(dp1841
sg50
g7
sbssg50
g7
sbssg50
g7
sbsg56
g1129
sg1135
g0
(g117
g2
Ntp1842
Rp1843
(dp1844
g48
I0
sg49
Nsg70
g71
(g72
(I0
tp1845
g74
tp1846
Rp1847
(I1
(I3
I3
tp1848
g81
I00
S'\x00\x00\x00\x00\x00`\x83@\x00\x00\x00\x00\x00\x00\x00\x00\x00\x00\x00\x00\x00\x00Y@\x00\x00\x00\x00\x00\x00\x00\x00\x00\x00\x00\x00\x00\x00~@\xfe\xff\xff\xff\xff\xffM@\x00\x00\x00\x00\x00\x00\x00\x00\x00\x00\x00\x00\x00\x00\x00\x00\x00\x00\x00\x00\x00\x00\xf0?'
p1849
tp1850
bsg50
g7
sg51
(dp1851
sbsg51
(dp1852
I139977455760464
g0
(g60
g2
Ntp1853
Rp1854
(dp1855
g48
I2
sg64
I2
sg65
g214
sg115
I2
sg116
g0
(g195
g2
Ntp1856
Rp1857
(dp1858
g48
I2
sg70
Nsg205
g186
sg49
Nsg206
(I0
F-0.05555555555555555
tp1859
sg50
g7
sg51
(dp1860
I139977455760464
g1854
ssbsg51
(dp1861
sg50
g7
sbsI139977454841936
g0
(g1137
g2
Ntp1862
Rp1863
(dp1864
g48
I2
sg1141
g0
(g1142
g2
Ntp1865
Rp1866
(dp1867
g1146
I00
sg1147
Nsg1148
g71
(g72
(I0
tp1868
g74
tp1869
Rp1870
(I1
(I1
I2
tp1871
g81
I00
S'\x9a\x99\x99\x99\x99\x99\xe9?\x00\x00\x00\x00\x00\x00\x00\x00'
p1872
tp1873
bsg1155
I00
sg1156
F0.1111111111111111
sg1157
I1
sg1158
I00
sbsg1159
g0
(g1142
g2
Ntp1874
Rp1875
(dp1876
g1146
I00
sg1147
Nsg1148
g1870
sg1155
I00
sg1156
F0.1111111111111111
sg1157
I1
sg1158
I00
sbsg148
g214
sg50
g7
sg51
(dp1877
sg1164
g0
(g1142
g2
Ntp1878
Rp1879
(dp1880
g1146
I00
sg1147
Nsg1148
g1870
sg1155
I00
sg1156
F0.1111111111111111
sg1157
I1
sg1158
I00
sbsbsI139977454751184
g0
(g1137
g2
Ntp1881
Rp1882
(dp1883
g48
I2
sg1141
g0
(g1142
g2
Ntp1884
Rp1885
(dp1886
g1146
I00
sg1147
Nsg1148
g71
(g72
(I0
tp1887
g74
tp1888
Rp1889
(I1
(I1
I2
tp1890
g81
I00
S'433333\xe3?\x00\x00\x00\x00\x00\x00\x00\x00'
p1891
tp1892
bsg1155
I00
sg1156
F0.1111111111111111
sg1157
I1
sg1158
I00
sbsg1159
g0
(g1142
g2
Ntp1893
Rp1894
(dp1895
g1146
I00
sg1147
Nsg1148
g1889
sg1155
I00
sg1156
F0.1111111111111111
sg1157
I1
sg1158
I00
sbsg148
g214
sg50
g7
sg51
(dp1896
sg1164
g0
(g1142
g2
Ntp1897
Rp1898
(dp1899
g1146
I00
sg1147
Nsg1148
g1889
sg1155
I00
sg1156
F0.1111111111111111
sg1157
I1
sg1158
I00
sbsbsI139977454748816
g0
(g1137
g2
Ntp1900
Rp1901
(dp1902
g48
I2
sg1141
g0
(g1142
g2
Ntp1903
Rp1904
(dp1905
g1146
I00
sg1147
Nsg1148
g71
(g72
(I0
tp1906
g74
tp1907
Rp1908
(I1
(I1
I2
tp1909
g81
I00
S'\x9a\x99\x99\x99\x99\x99\xd9?\x00\x00\x00\x00\x00\x00\xf0?'
p1910
tp1911
bsg1155
I00
sg1156
F0.1111111111111111
sg1157
I1
sg1158
I00
sbsg1159
g0
(g1142
g2
Ntp1912
Rp1913
(dp1914
g1146
I00
sg1147
Nsg1148
g1908
sg1155
I00
sg1156
F0.1111111111111111
sg1157
I1
sg1158
I00
sbsg148
g214
sg50
g7
sg51
(dp1915
sg1164
g0
(g1142
g2
Ntp1916
Rp1917
(dp1918
g1146
I00
sg1147
Nsg1148
g1908
sg1155
I00
sg1156
F0.1111111111111111
sg1157
I1
sg1158
I00
sbsbsI139977455362192
g0
(g60
g2
Ntp1919
Rp1920
(dp1921
g48
I2
sg64
I2
sg65
g214
sg115
I2
sg116
g0
(g195
g2
Ntp1922
Rp1923
(dp1924
g48
I2
sg70
Nsg205
g186
sg49
Nsg206
(I0
F0.05555555555555555
tp1925
sg50
g7
sg51
(dp1926
I139977455362192
g1920
ssbsg51
(dp1927
sg50
g7
sbsI139977454842000
g0
(g1137
g2
Ntp1928
Rp1929
(dp1930
g48
I2
sg1141
g0
(g1142
g2
Ntp1931
Rp1932
(dp1933
g1146
I00
sg1147
Nsg1148
g71
(g72
(I0
tp1934
g74
tp1935
Rp1936
(I1
(I1
I2
tp1937
g81
I00
S'\x9a\x99\x99\x99\x99\x99\xe9?\x00\x00\x00\x00\x00\x00\xf0?'
p1938
tp1939
bsg1155
I00
sg1156
F0.1111111111111111
sg1157
I1
sg1158
I00
sbsg1159
g0
(g1142
g2
Ntp1940
Rp1941
(dp1942
g1146
I00
sg1147
Nsg1148
g1936
sg1155
I00
sg1156
F0.1111111111111111
sg1157
I1
sg1158
I00
sbsg148
g214
sg50
g7
sg51
(dp1943
sg1164
g0
(g1142
g2
Ntp1944
Rp1945
(dp1946
g1146
I00
sg1147
Nsg1148
g1936
sg1155
I00
sg1156
F0.1111111111111111
sg1157
I1
sg1158
I00
sbsbsI139977455410000
g0
(g60
g2
Ntp1947
Rp1948
(dp1949
g48
I2
sg64
I2
sg65
g214
sg115
I2
sg116
g0
(g195
g2
Ntp1950
Rp1951
(dp1952
g48
I2
sg70
Nsg205
g186
sg49
Nsg206
(I0
F0.05555555555555555
tp1953
sg50
g7
sg51
(dp1954
I139977455410000
g1948
ssbsg51
(dp1955
sg50
g7
sbsI139977454842640
g0
(g1137
g2
Ntp1956
Rp1957
(dp1958
g48
I2
sg1141
g0
(g1142
g2
Ntp1959
Rp1960
(dp1961
g1146
I00
sg1147
Nsg1148
g71
(g72
(I0
tp1962
g74
tp1963
Rp1964
(I1
(I1
I2
tp1965
g81
I00
S'\x00\x00\x00\x00\x00\x00\xf0?\x00\x00\x00\x00\x00\x00\xf0?'
p1966
tp1967
bsg1155
I00
sg1156
F0.1111111111111111
sg1157
I1
sg1158
I00
sbsg1159
g0
(g1142
g2
Ntp1968
Rp1969
(dp1970
g1146
I00
sg1147
Nsg1148
g1964
sg1155
I00
sg1156
F0.1111111111111111
sg1157
I1
sg1158
I00
sbsg148
g214
sg50
g7
sg51
(dp1971
sg1164
g0
(g1142
g2
Ntp1972
Rp1973
(dp1974
g1146
I00
sg1147
Nsg1148
g1964
sg1155
I00
sg1156
F0.1111111111111111
sg1157
I1
sg1158
I00
sbsbsI139977454751120
g0
(g1137
g2
Ntp1975
Rp1976
(dp1977
g48
I2
sg1141
g0
(g1142
g2
Ntp1978
Rp1979
(dp1980
g1146
I00
sg1147
Nsg1148
g71
(g72
(I0
tp1981
g74
tp1982
Rp1983
(I1
(I1
I2
tp1984
g81
I00
S'\x9a\x99\x99\x99\x99\x99\xd9?\x00\x00\x00\x00\x00\x00\x00\x00'
p1985
tp1986
bsg1155
I00
sg1156
F0.1111111111111111
sg1157
I1
sg1158
I00
sbsg1159
g0
(g1142
g2
Ntp1987
Rp1988
(dp1989
g1146
I00
sg1147
Nsg1148
g1983
sg1155
I00
sg1156
F0.1111111111111111
sg1157
I1
sg1158
I00
sbsg148
g214
sg50
g7
sg51
(dp1990
sg1164
g0
(g1142
g2
Ntp1991
Rp1992
(dp1993
g1146
I00
sg1147
Nsg1148
g1983
sg1155
I00
sg1156
F0.1111111111111111
sg1157
I1
sg1158
I00
sbsbsI139977455762064
g0
(g60
g2
Ntp1994
Rp1995
(dp1996
g48
I2
sg64
I2
sg65
g214
sg115
I2
sg116
g0
(g195
g2
Ntp1997
Rp1998
(dp1999
g48
I2
sg70
Nsg205
g186
sg49
Nsg206
(I0
F0.05555555555555555
tp2000
sg50
g7
sg51
(dp2001
I139977455762064
g1995
ssbsg51
(dp2002
sg50
g7
sbsI139977455365584
g210
sI139977455143568
g0
(g1137
g2
Ntp2003
Rp2004
(dp2005
g48
I2
sg1141
g0
(g1142
g2
Ntp2006
Rp2007
(dp2008
g1146
I00
sg1147
Nsg1148
g71
(g72
(I0
tp2009
g74
tp2010
Rp2011
(I1
(I1
I2
tp2012
g81
I00
S'\x9a\x99\x99\x99\x99\x99\xc9?\x00\x00\x00\x00\x00\x00\x00\x00'
p2013
tp2014
bsg1155
I00
sg1156
F0.1111111111111111
sg1157
I1
sg1158
I00
sbsg1159
g0
(g1142
g2
Ntp2015
Rp2016
(dp2017
g1146
I00
sg1147
Nsg1148
g2011
sg1155
I00
sg1156
F0.1111111111111111
sg1157
I1
sg1158
I00
sbsg148
g214
sg50
g7
sg51
(dp2018
sg1164
g0
(g1142
g2
Ntp2019
Rp2020
(dp2021
g1146
I00
sg1147
Nsg1148
g2011
sg1155
I00
sg1156
F0.1111111111111111
sg1157
I1
sg1158
I00
sbsbsI139977454751248
g0
(g1137
g2
Ntp2022
Rp2023
(dp2024
g48
I2
sg1141
g0
(g1142
g2
Ntp2025
Rp2026
(dp2027
g1146
I00
sg1147
Nsg1148
g71
(g72
(I0
tp2028
g74
tp2029
Rp2030
(I1
(I1
I2
tp2031
g81
I00
S'433333\xe3?\x00\x00\x00\x00\x00\x00\xf0?'
p2032
tp2033
bsg1155
I00
sg1156
F0.1111111111111111
sg1157
I1
sg1158
I00
sbsg1159
g0
(g1142
g2
Ntp2034
Rp2035
(dp2036
g1146
I00
sg1147
Nsg1148
g2030
sg1155
I00
sg1156
F0.1111111111111111
sg1157
I1
sg1158
I00
sbsg148
g214
sg50
g7
sg51
(dp2037
sg1164
g0
(g1142
g2
Ntp2038
Rp2039
(dp2040
g1146
I00
sg1147
Nsg1148
g2030
sg1155
I00
sg1156
F0.1111111111111111
sg1157
I1
sg1158
I00
sbsbsI139977455144528
g0
(g1137
g2
Ntp2041
Rp2042
(dp2043
g48
I2
sg1141
g0
(g1142
g2
Ntp2044
Rp2045
(dp2046
g1146
I00
sg1147
Nsg1148
g71
(g72
(I0
tp2047
g74
tp2048
Rp2049
(I1
(I1
I2
tp2050
g81
I00
S'\x9a\x99\x99\x99\x99\x99\xc9?\x00\x00\x00\x00\x00\x00\xf0?'
p2051
tp2052
bsg1155
I00
sg1156
F0.1111111111111111
sg1157
I1
sg1158
I00
sbsg1159
g0
(g1142
g2
Ntp2053
Rp2054
(dp2055
g1146
I00
sg1147
Nsg1148
g2049
sg1155
I00
sg1156
F0.1111111111111111
sg1157
I1
sg1158
I00
sbsg148
g214
sg50
g7
sg51
(dp2056
sg1164
g0
(g1142
g2
Ntp2057
Rp2058
(dp2059
g1146
I00
sg1147
Nsg1148
g2049
sg1155
I00
sg1156
F0.1111111111111111
sg1157
I1
sg1158
I00
sbsbsI139977455233680
g0
(g1137
g2
Ntp2060
Rp2061
(dp2062
g48
I2
sg1141
g0
(g1142
g2
Ntp2063
Rp2064
(dp2065
g1146
I00
sg1147
Nsg1148
g71
(g72
(I0
tp2066
g74
tp2067
Rp2068
(I1
(I1
I2
tp2069
g81
I00
S'\x00\x00\x00\x00\x00\x00\x00\x00\x00\x00\x00\x00\x00\x00\x00\x00'
p2070
tp2071
bsg1155
I00
sg1156
F0.1111111111111111
sg1157
I1
sg1158
I00
sbsg1159
g0
(g1142
g2
Ntp2072
Rp2073
(dp2074
g1146
I00
sg1147
Nsg1148
g2068
sg1155
I00
sg1156
F0.1111111111111111
sg1157
I1
sg1158
I00
sbsg148
g214
sg50
g7
sg51
(dp2075
sg1164
g0
(g1142
g2
Ntp2076
Rp2077
(dp2078
g1146
I00
sg1147
Nsg1148
g2068
sg1155
I00
sg1156
F0.1111111111111111
sg1157
I1
sg1158
I00
sbsbsI139977454842576
g0
(g1137
g2
Ntp2079
Rp2080
(dp2081
g48
I2
sg1141
g0
(g1142
g2
Ntp2082
Rp2083
(dp2084
g1146
I00
sg1147
Nsg1148
g71
(g72
(I0
tp2085
g74
tp2086
Rp2087
(I1
(I1
I2
tp2088
g81
I00
S'\x00\x00\x00\x00\x00\x00\xf0?\x00\x00\x00\x00\x00\x00\x00\x00'
p2089
tp2090
bsg1155
I00
sg1156
F0.1111111111111111
sg1157
I1
sg1158
I00
sbsg1159
g0
(g1142
g2
Ntp2091
Rp2092
(dp2093
g1146
I00
sg1147
Nsg1148
g2087
sg1155
I00
sg1156
F0.1111111111111111
sg1157
I1
sg1158
I00
sbsg148
g214
sg50
g7
sg51
(dp2094
sg1164
g0
(g1142
g2
Ntp2095
Rp2096
(dp2097
g1146
I00
sg1147
Nsg1148
g2087
sg1155
I00
sg1156
F0.1111111111111111
sg1157
I1
sg1158
I00
sbsbsI139977455232464
g0
(g1137
g2
Ntp2098
Rp2099
(dp2100
g48
I2
sg1141
g0
(g1142
g2
Ntp2101
Rp2102
(dp2103
g1146
I00
sg1147
Nsg1148
g71
(g72
(I0
tp2104
g74
tp2105
Rp2106
(I1
(I1
I2
tp2107
g81
I00
S'\x00\x00\x00\x00\x00\x00\x00\x00\x00\x00\x00\x00\x00\x00\xf0?'
p2108
tp2109
bsg1155
I00
sg1156
F0.1111111111111111
sg1157
I1
sg1158
I00
sbsg1159
g0
(g1142
g2
Ntp2110
Rp2111
(dp2112
g1146
I00
sg1147
Nsg1148
g2106
sg1155
I00
sg1156
F0.1111111111111111
sg1157
I1
sg1158
I00
sbsg148
g214
sg50
g7
sg51
(dp2113
sg1164
g0
(g1142
g2
Ntp2114
Rp2115
(dp2116
g1146
I00
sg1147
Nsg1148
g2106
sg1155
I00
sg1156
F0.1111111111111111
sg1157
I1
sg1158
I00
sbsbsI139977455409744
g0
(g60
g2
Ntp2117
Rp2118
(dp2119
g48
I2
sg64
I2
sg65
g214
sg115
I2
sg116
g0
(g195
g2
Ntp2120
Rp2121
(dp2122
g48
I2
sg70
Nsg205
g186
sg49
Nsg206
(I0
F-0.05555555555555555
tp2123
sg50
g7
sg51
(dp2124
I139977455409744
g2118
ssbsg51
(dp2125
sg50
g7
sbssg50
g7
sbsg115
I2
sg116
g197
sg51
(dp2126
sg50
g7
sbssbsI139977455272848
g1413
sI139977455321232
g1276
sI139977455274960
g1404
sI139977455362128
g1923
sI139977455761552
g1998
sI139977455449168
g1172
sI139977455450512
g647
sI139977455599056
g160
sI139977455323664
g1319
sI139977455763024
g1857
sI139977455449424
g1310
sI139977455407696
g2121
sI139977455409936
g1951
ssbsg106
g71
(g72
(I0
tp2127
g74
tp2128
Rp2129
(I1
(I2
I2
tp2130
g81
I00
S'\x00\x00\x00\x00\x00\x00\x00\x00\x00\x00\x00\x00\x00\x00\x00\x00\x00\x00\x00\x00\x00\x00\x89@\x00\x00\x00\x00\x00\xc0\x82@'
p2131
tp2132
bsg51
(dp2133
I139977455599120
g150
ssg50
g7
sbsg51
(dp2134
I139977455655888
g236
ssg50
g7
sbsS'_capstyle'
p2135
Vbutt
p2136
sS'_url'
p2137
NsS'_axes'
p2138
Nsg33
Nsbsg41
Nsg132
NsV_restore_to_pylab
p2139
I01
sS'images'
p2140
(lp2141
sS'_suptitle'
p2142
NsS'dpi_scale_trans'
p2143
g186
sS'number'
p2144
I2
sS'callbacks'
p2145
g0
(cmatplotlib.cbook
CallbackRegistry
p2146
g2
Ntp2147
Rp2148
sg137
NsS'_tight'
p2149
I00
sg130
I01
sS'bbox'
p2150
g160
sg57
Nsg144
I0
sS'patches'
p2151
(lp2152
sS'legends'
p2153
(lp2154
sS'suppressComposite'
p2155
Nsg145
I00
sg147
NsS'_axstack'
p2156
g0
(cmatplotlib.figure
AxesStack
p2157
g2
Ntp2158
Rp2159
(dp2160
S'_default'
p2161
NsS'_elements'
p2162
(lp2163
(((g0
(cmatplotlib.gridspec
SubplotSpec
p2164
g2
Ntp2165
Rp2166
(dp2167
S'num1'
p2168
I0
sS'num2'
p2169
I0
sS'_gridspec'
p2170
g0
(cmatplotlib.gridspec
GridSpec
p2171
g2
Ntp2172
Rp2173
(dp2174
S'_nrows'
p2175
I1
sS'right'
p2176
NsS'_col_width_ratios'
p2177
NsS'bottom'
p2178
NsS'top'
p2179
NsS'wspace'
p2180
NsS'_ncols'
p2181
I1
sS'hspace'
p2182
NsS'_row_height_ratios'
p2183
NsS'left'
p2184
Nsbsbtp2185
(ttp2186
(I1
g0
(cmatplotlib.axes._subplots
_PicklableSubplotClassConstructor
p2187
g2
Ntp2188
Rp2189
(cmatplotlib.axes._axes
Axes
p2190
tp2191
Rp2192
(dp2193
S'transLimits'
p2194
g1093
sS'_get_patches_for_fill'
p2195
g0
(cmatplotlib.axes._base
_process_plot_var_args
p2196
g2
Ntp2197
Rp2198
(dp2199
Vaxes
p2200
g2192
sVcommand
p2201
Vfill
p2202
sbsS'_xcid'
p2203
I1
sg6
V
p2204
sS'legend_'
p2205
Nsg12
(lp2206
sS'_frameon'
p2207
I01
sS'_autoscaleYon'
p2208
I01
sg14
I01
sg15
(lp2209
sg20
I01
sS'tables'
p2210
(lp2211
sg2151
(lp2212
sS'title'
p2213
g0
(cmatplotlib.text
Text
p2214
g2
Ntp2215
Rp2216
(dp2217
g6
g7
sg8
I01
sg9
g4
sg10
NsS'_fontproperties'
p2218
g0
(cmatplotlib.font_manager
FontProperties
p2219
g2
Ntp2220
Rp2221
(dp2222
S'_family'
p2223
(lp2224
Vsans-serif
p2225
asS'_file'
p2226
NsS'_variant'
p2227
Vnormal
p2228
sS'_slant'
p2229
g2228
sS'_size'
p2230
Vlarge
p2231
sS'_weight'
p2232
I400
sS'_stretch'
p2233
g2228
sbsg41
Nsg17
g18
sS'_multialignment'
p2234
Nsg20
I01
sg23
Nsg55
F1.0
sg56
F0.5
sg24
Nsg11
Nsg27
I00
sg28
I00
sg29
(dp2235
sS'_renderer'
p2236
Nsg31
I00
sg2138
g2192
sg132
Nsg2137
NsS'_rotation_mode'
p2237
Nsg32
Nsg137
Nsg130
I01
sS'_verticalalignment'
p2238
Vbaseline
p2239
sS'_text'
p2240
V
p2241
sS'_bbox_patch'
p2242
Nsg57
Nsg144
I0
sS'_rotation'
p2243
Nsg145
I01
sg147
NsS'_linespacing'
p2244
F1.2
sg148
g644
sS'_usetex'
p2245
NsS'_wrap'
p2246
I00
sg42
NsS'_color'
p2247
Vk
p2248
sS'_horizontalalignment'
p2249
Vcenter
p2250
sg33
NsbsS'_current_image'
p2251
NsS'mouseover_set'
p2252
c__builtin__
set
p2253
((lp2254
tp2255
Rp2256
sg11
NsS'_cursorProps'
p2257
(I1
(F0.0
F0.0
F0.0
F1.0
tp2258
tp2259
sS'numRows'
p2260
I1
sS'collections'
p2261
(lp2262
sg2138
g2192
sg29
(dp2263
sg31
I00
sS'containers'
p2264
(lp2265
sg28
I00
sg132
NsS'_get_lines'
p2266
g0
(g2196
g2
Ntp2267
Rp2268
(dp2269
g2200
g2192
sg2201
Vplot
p2270
sbsS'_aspect'
p2271
Vauto
p2272
sS'fmt_xdata'
p2273
Nsg2145
g0
(g2146
g2
Ntp2274
Rp2275
sg137
NsS'_anchor'
p2276
VC
p2277
sg130
I00
sg2150
g236
sS'ignore_existing_data_limits'
p2278
I01
sg57
Nsg144
I0
sg145
I00
sS'_left_title'
p2279
g0
(g2214
g2
Ntp2280
Rp2281
(dp2282
g6
g7
sg8
I01
sg9
g4
sg10
Nsg2218
g0
(g2219
g2
Ntp2283
Rp2284
(dp2285
g2223
g2224
sg2226
Nsg2227
g2228
sg2229
g2228
sg2230
g2231
sg2232
I400
sg2233
g2228
sbsg41
Nsg17
g18
sg2234
Nsg20
I01
sg23
Nsg55
F1.0
sg56
F0.0
sg24
Nsg11
Nsg27
I00
sg28
I00
sg29
(dp2286
sg2236
Nsg31
I00
sg2138
g2192
sg132
Nsg2137
Nsg2237
Nsg32
Nsg137
Nsg130
I01
sg2238
g2239
sg2240
V
p2287
sg2242
Nsg57
Nsg144
I0
sg2243
Nsg145
I01
sg147
Nsg2244
F1.2
sg148
g652
sg2245
Nsg2246
I00
sg42
Nsg2247
g2248
sg2249
Vleft
p2288
sg33
NsbsS'_right_title'
p2289
g0
(g2214
g2
Ntp2290
Rp2291
(dp2292
g6
g7
sg8
I01
sg9
g4
sg10
Nsg2218
g0
(g2219
g2
Ntp2293
Rp2294
(dp2295
g2223
g2224
sg2226
Nsg2227
g2228
sg2229
g2228
sg2230
g2231
sg2232
I400
sg2233
g2228
sbsg41
Nsg17
g18
sg2234
Nsg20
I01
sg23
Nsg55
F1.0
sg56
F1.0
sg24
Nsg11
Nsg27
I00
sg28
I00
sg29
(dp2296
sg2236
Nsg31
I00
sg2138
g2192
sg132
Nsg2137
Nsg2237
Nsg32
Nsg137
Nsg130
I01
sg2238
g2239
sg2240
V
p2297
sg2242
Nsg57
Nsg144
I0
sg2243
Nsg145
I01
sg147
Nsg2244
F1.2
sg148
g656
sg2245
Nsg2246
I00
sg42
Nsg2247
g2248
sg2249
Vright
p2298
sg33
NsbsS'transScale'
p2299
g1123
sg148
NsS'axison'
p2300
I01
sS'patch'
p2301
g0
(g35
g2
Ntp2302
Rp2303
(dp2304
g6
g7
sg39
F1.0
sg40
I01
sg9
g4
sg8
I01
sg10
Nsg41
Nsg17
g18
sg42
Nsg20
I01
sg43
g0
(g44
g2
Ntp2305
Rp2306
(dp2307
g48
I1
sg49
Nsg50
g7
sg51
(dp2308
sbsg53
(F0.0
F0.0
F0.0
F0.0
tp2309
sg23
Nsg55
F0.0
sg56
F0.0
sg57
Nsg24
Nsg11
Nsg27
I00
sg28
I00
sg29
(dp2310
sg59
g0
(g60
g2
Ntp2311
Rp2312
(dp2313
g48
I1
sg64
I2
sg65
g0
(g66
g2
Ntp2314
Rp2315
(dp2316
g48
I0
sg70
g71
(g72
(I0
tp2317
g74
tp2318
Rp2319
(I1
(I3
I3
tp2320
g81
I00
S'\x00\x00\x00\x00\x00\x00\xf0?\x00\x00\x00\x00\x00\x00\x00\x00\x00\x00\x00\x00\x00\x00\x00\x00\x00\x00\x00\x00\x00\x00\x00\x00\x00\x00\x00\x00\x00\x00\xf0?\x00\x00\x00\x00\x00\x00\x00\x00\x00\x00\x00\x00\x00\x00\x00\x00\x00\x00\x00\x00\x00\x00\x00\x00\x00\x00\x00\x00\x00\x00\xf0?'
p2321
tp2322
bsg49
Nsg86
g0
(g87
g2
Ntp2323
Rp2324
(dp2325
g48
I0
sg91
g71
(g72
(I0
tp2326
g74
tp2327
Rp2328
(I1
(I2
tp2329
g81
I00
S'H\xaf\xbc\x9a\xf2\xd7z>H\xaf\xbc\x9a\xf2\xd7z>'
p2330
tp2331
bsg51
(dp2332
I139977455143376
g2315
ssg99
g71
(g72
(I0
tp2333
g74
tp2334
Rp2335
(I1
(I2
I2
tp2336
g81
I00
S'\x00\x00\x00\x00\x00\x00\x00\x00\x00\x00\x00\x00\x00\x00\x00\x00\x00\x00\x00\x00\x00\x00\xf0?\x00\x00\x00\x00\x00\x00\xf0?'
p2337
tp2338
bsg106
g71
(g72
(I0
tp2339
g74
tp2340
Rp2341
(I1
(I2
I2
tp2342
g81
I00
S'\x00\x00\x00\x00\x00\x00\x00\x00\x00\x00\x00\x00\x00\x00\x00\x00\x00\x00\x00\x00\x00\x00\xf0?\x00\x00\x00\x00\x00\x00\xf0?'
p2343
tp2344
bsg113
I01
sg50
g7
sbsg51
(dp2345
I139977455143504
g2312
ssg50
g7
sbsg115
I2
sg116
g0
(g117
g2
Ntp2346
Rp2347
(dp2348
g48
I0
sg49
Nsg70
g71
(g72
(I0
tp2349
g74
tp2350
Rp2351
(I1
(I3
I3
tp2352
g81
I00
S'\x00\x00\x00\x00\x00\x00\xf0?\x00\x00\x00\x00\x00\x00\x00\x00\x00\x00\x00\x00\x00\x00\x00\x00\x00\x00\x00\x00\x00\x00\x00\x00\x00\x00\x00\x00\x00\x00\xf0?\x00\x00\x00\x00\x00\x00\x00\x00\x00\x00\x00\x00\x00\x00\x00\x00\x00\x00\x00\x00\x00\x00\x00\x00\x00\x00\x00\x00\x00\x00\xf0?'
p2353
tp2354
bsg50
g7
sg51
(dp2355
I139977455143504
g2312
ssbsg51
(dp2356
sg50
g7
sbsg31
I00
sg129
Nsg130
I00
sg131
F0.0
sg132
Nsg133
F1.0
sg32
Nsg134
I01
sg135
Vw
p2357
sg137
Nsg138
(F1.0
F1.0
F1.0
F1.0
tp2358
sg139
g140
sg141
g142
sg143
VNone
p2359
sg144
I0
sg145
I01
sg146
F0.0
sg147
Nsg148
g217
sg2135
g2136
sg2137
Nsg2138
Nsg33
NsbsS'viewLim'
p2360
g1100
sg17
g18
sS'_subplotspec'
p2361
g2166
sS'_adjustable'
p2362
Vbox
p2363
sg9
g4
sS'titleOffsetTrans'
p2364
g647
sS'_yaxis_transform'
p2365
g1133
sS'_gridOn'
p2366
I00
sg10
NsS'colNum'
p2367
I0
sg41
Nsg2140
(lp2368
sS'_autoscaleXon'
p2369
I01
sS'_xmargin'
p2370
F0.0
sS'rowNum'
p2371
I0
sS'_position'
p2372
g239
sS'_rasterization_zorder'
p2373
NsS'_cachedRenderer'
p2374
g0
(cmatplotlib.backends.backend_agg
RendererAgg
p2375
g2
Ntp2376
Rp2377
(dp2378
Vwidth
p2379
cnumpy.core.multiarray
scalar
p2380
(g81
S'\x00\x00\x00\x00\x00\x00\x89@'
p2381
tp2382
Rp2383
sVdpi
p2384
F100.0
sVheight
p2385
g2380
(g81
S'\x00\x00\x00\x00\x00\xc0\x82@'
p2386
tp2387
Rp2388
sbsS'_navigate'
p2389
I01
sg23
NsS'_originalPosition'
p2390
g0
(g87
g2
Ntp2391
Rp2392
(dp2393
g48
I0
sg91
g71
(g72
(I0
tp2394
g74
tp2395
Rp2396
(I1
(I2
tp2397
g81
I00
S'H\xaf\xbc\x9a\xf2\xd7z>H\xaf\xbc\x9a\xf2\xd7z>'
p2398
tp2399
bsg51
(dp2400
sg99
g71
(g72
(I0
tp2401
g74
tp2402
Rp2403
(I1
(I2
I2
tp2404
g81
I00
S'\x00\x00\x00\x00\x00\x00\xc0?\x98\x99\x99\x99\x99\x99\xb9?\xcd\xcc\xcc\xcc\xcc\xcc\xec?\xcd\xcc\xcc\xcc\xcc\xcc\xec?'
p2405
tp2406
bsg106
g71
(g72
(I0
tp2407
g74
tp2408
Rp2409
(I1
(I2
I2
tp2410
g81
I00
S'\x00\x00\x00\x00\x00\x00\xc0?\x98\x99\x99\x99\x99\x99\xb9?\xcd\xcc\xcc\xcc\xcc\xcc\xec?\xcd\xcc\xcc\xcc\xcc\xcc\xec?'
p2411
tp2412
bsg113
I01
sg50
g7
sbsg24
NsS'_xaxis_transform'
p2413
g214
sg27
I00
sS'figbox'
p2414
g239
sS'xaxis'
p2415
g0
(cmatplotlib.axis
XAxis
p2416
g2
Ntp2417
Rp2418
(dp2419
g6
g7
sS'major'
p2420
g0
(cmatplotlib.axis
Ticker
p2421
g2
Ntp2422
Rp2423
(dp2424
S'locator'
p2425
g0
(cmatplotlib.ticker
AutoLocator
p2426
g2
Ntp2427
Rp2428
(dp2429
S'_symmetric'
p2430
I00
sS'_nbins'
p2431
I9
sS'_steps'
p2432
(lp2433
I1
aI2
aI5
aI10
asS'_prune'
p2434
NsS'_integer'
p2435
I00
sS'_trim'
p2436
I01
sS'axis'
p2437
g2418
sbsS'formatter'
p2438
g0
(cmatplotlib.ticker
ScalarFormatter
p2439
g2
Ntp2440
Rp2441
(dp2442
S'_powerlimits'
p2443
(lp2444
I-7
aI7
asS'orderOfMagnitude'
p2445
I0
sS'_useMathText'
p2446
I00
sS'format'
p2447
V%1.1f
p2448
sS'_useLocale'
p2449
I00
sS'_useOffset'
p2450
I01
sS'locs'
p2451
g71
(g72
(I0
tp2452
g74
tp2453
Rp2454
(I1
(I6
tp2455
g81
I00
S'\x00\x00\x00\x00\x00\x00\x00\x00\x9a\x99\x99\x99\x99\x99\xc9?\x9a\x99\x99\x99\x99\x99\xd9?433333\xe3?\x9a\x99\x99\x99\x99\x99\xe9?\x00\x00\x00\x00\x00\x00\xf0?'
p2456
tp2457
bsS'offset'
p2458
I0
sg2245
I00
sS'_scientific'
p2459
I01
sg2437
g2418
sbsbsS'isDefault_label'
p2460
I01
sS'_scale'
p2461
g0
(cmatplotlib.scale
LinearScale
p2462
g2
Ntp2463
Rp2464
sg9
g4
sg8
I01
sS'_gridOnMinor'
p2465
I00
sg10
Nsg41
NsS'_smart_bounds'
p2466
I00
sg17
g18
sg20
I01
sg23
NsS'offsetText'
p2467
g0
(g2214
g2
Ntp2468
Rp2469
(dp2470
g6
g7
sg8
I01
sg9
g4
sg10
Nsg2218
g0
(g2219
g2
Ntp2471
Rp2472
(dp2473
g2223
(lp2474
g2225
asg2226
Nsg2227
g2228
sg2229
g2228
sg2230
Vmedium
p2475
sg2232
I400
sg2233
g2228
sbsg41
Nsg17
g18
sg2234
Nsg20
I01
sg23
Nsg55
g2380
(g81
S'7\x8e\xe38\x8e#@@'
p2476
tp2477
Rp2478
sg56
I1
sg24
Nsg11
Nsg27
I00
sg28
I00
sg29
(dp2479
sg2236
Nsg31
I00
sg2138
Nsg132
Nsg2137
Nsg2237
Nsg32
Nsg137
Nsg130
I01
sg2238
Vtop
p2480
sg2240
V
p2481
sg2242
Nsg57
Nsg144
I0
sg2243
Nsg145
I01
sg147
Nsg2244
F1.2
sg148
g661
sg2245
Nsg2246
I00
sg42
Nsg2247
g2248
sg2249
Vright
p2482
sg33
Nsbsg24
Nsg11
NsS'label'
p2483
g0
(g2214
g2
Ntp2484
Rp2485
(dp2486
g6
g7
sg8
I01
sg9
g4
sg10
Nsg2218
g0
(g2219
g2
Ntp2487
Rp2488
(dp2489
g2223
(lp2490
g2225
asg2226
Nsg2227
g2228
sg2229
g2228
sg2230
g2475
sg2232
I400
sg2233
g2228
sbsg41
Nsg17
g18
sg2234
Nsg20
I01
sg23
Nsg55
g2380
(g81
S'\xfc\xff\xff\xff\xff\x7f=@'
p2491
tp2492
Rp2493
sg56
F0.5
sg24
Nsg11
Nsg27
I00
sg28
I00
sg29
(dp2494
sg2236
Nsg31
I00
sg2138
Nsg132
Nsg2137
Nsg2237
Nsg32
Nsg137
Nsg130
I01
sg2238
Vtop
p2495
sg2240
V
p2496
sg2242
Nsg57
Nsg144
I0
sg2243
Nsg145
I01
sg147
Nsg2244
F1.2
sg148
g488
sg2245
Nsg2246
I00
sg42
Nsg2247
g2248
sg2249
Vcenter
p2497
sg33
Nsbsg27
I00
sS'isDefault_majfmt'
p2498
I01
sg28
I00
sg29
(dp2499
sS'units'
p2500
Nsg31
I00
sS'minor'
p2501
g0
(g2421
g2
Ntp2502
Rp2503
(dp2504
g2425
g0
(cmatplotlib.ticker
NullLocator
p2505
g2
Ntp2506
Rp2507
(dp2508
g2437
g2418
sbsg2438
g0
(cmatplotlib.ticker
NullFormatter
p2509
g2
Ntp2510
Rp2511
(dp2512
g2451
(lp2513
sg2437
g2418
sbsbsg2138
g2192
sS'_major_tick_kw'
p2514
(dp2515
VgridOn
p2516
I00
ssS'isDefault_minloc'
p2517
I01
sg132
g1537
sg32
NsS'_gridOnMajor'
p2518
I00
sS'_lastNumMinorTicks'
p2519
I0
sS'labelpad'
p2520
F5.0
sS'majorTicks'
p2521
(lp2522
g0
(cmatplotlib.axis
XTick
p2523
g2
Ntp2524
Rp2525
(dp2526
g6
g7
sg39
F0.5
sg9
g4
sS'tick1On'
p2527
I01
sg8
I01
sg10
Nsg144
I0
sg41
NsS'_pad'
p2528
F4.0
sS'_labelcolor'
p2529
g2248
sS'gridOn'
p2530
I00
sg2230
F4.0
sg17
g18
sS'_tickdir'
p2531
Vin
p2532
sg2483
g0
(g2214
g2
Ntp2533
Rp2534
(dp2535
g6
g7
sg8
I01
sg9
g4
sg10
Nsg2218
g0
(g2219
g2
Ntp2536
Rp2537
(dp2538
g2223
(lp2539
g2225
asg2226
Nsg2227
g2228
sg2229
g2228
sg2230
g2475
sg2232
I400
sg2233
g2228
sbsg41
Nsg17
g18
sg2234
Nsg20
I01
sg23
Nsg55
I0
sg56
g2380
(g81
S'\x00\x00\x00\x00\x00\x00\x00\x00'
p2540
tp2541
Rp2542
sg24
Nsg11
Nsg27
I00
sg28
I00
sg29
(dp2543
sg2236
Nsg31
I00
sg2138
Nsg132
Nsg2137
Nsg2237
Nsg32
Nsg137
Nsg130
I00
sg2238
Vtop
p2544
sg2240
V0.0
p2545
sg2242
Nsg57
Nsg144
I0
sg2243
Nsg145
I01
sg147
Nsg2244
F1.2
sg148
g210
sg2245
Nsg2246
I00
sg42
Nsg2247
g2248
sg2249
Vcenter
p2546
sg33
Nsbsg20
I01
sg23
NsS'label2On'
p2547
I00
sg24
Nsg11
NsS'tick2On'
p2548
I01
sg27
I00
sg28
I00
sg29
(dp2549
sS'_tickmarkers'
p2550
(I2
I3
tp2551
sg31
I00
sS'_zorder'
p2552
F2.01
sg2138
g2192
sS'label1On'
p2553
I01
sg132
g1817
sg2137
NsS'label1'
p2554
g2534
sS'label2'
p2555
g0
(g2214
g2
Ntp2556
Rp2557
(dp2558
g6
g7
sg8
I01
sg9
g4
sg10
Nsg2218
g0
(g2219
g2
Ntp2559
Rp2560
(dp2561
g2223
(lp2562
g2225
asg2226
Nsg2227
g2228
sg2229
g2228
sg2230
g2475
sg2232
I400
sg2233
g2228
sbsg41
Nsg17
g18
sg2234
Nsg20
I01
sg23
Nsg55
I1
sg56
I0
sg24
Nsg11
Nsg27
I00
sg28
I00
sg29
(dp2563
sg2236
Nsg31
I00
sg2138
Nsg132
Nsg2137
Nsg2237
Nsg32
Nsg137
Nsg130
I01
sg2238
Vbottom
p2564
sg2240
V0.0
p2565
sg2242
Nsg57
Nsg144
I0
sg2243
Nsg145
I01
sg147
Nsg2244
F1.2
sg148
g1920
sg2245
Nsg2246
I00
sg42
Nsg2247
g2248
sg2249
Vcenter
p2566
sg33
Nsbsg137
NsS'_loc'
p2567
g2542
sg130
I00
sg57
NsS'_base_pad'
p2568
F4.0
sS'tick1line'
p2569
g0
(cmatplotlib.lines
Line2D
p2570
g2
Ntp2571
Rp2572
(dp2573
g6
g7
sg8
I01
sS'_solidcapstyle'
p2574
Vprojecting
p2575
sg9
g4
sS'_dashcapstyle'
p2576
Vbutt
p2577
sS'_linestyles'
p2578
Nsg10
Nsg41
Nsg17
g18
sS'_solidjoinstyle'
p2579
Vround
p2580
sg20
I01
sS'_x_filled'
p2581
Nsg23
Nsg55
g71
(g72
(I0
tp2582
g74
tp2583
Rp2584
(I1
(I1
tp2585
g81
I00
S'\x00\x00\x00\x00\x00\x00\x00\x00'
p2586
tp2587
bsg56
g71
(g72
(I0
tp2588
g74
tp2589
Rp2590
(I1
(I1
tp2591
g81
I00
S'\x00\x00\x00\x00\x00\x00\x00\x00'
p2592
tp2593
bsg57
Nsg24
Nsg11
Nsg27
I00
sS'_markevery'
p2594
Nsg28
I00
sg29
(dp2595
sS'verticalOffset'
p2596
Nsg31
I00
sS'_subslice'
p2597
I00
sg2138
Nsg1141
g2061
sS'_markeredgewidth'
p2598
F0.5
sS'_markerfacecolor'
p2599
Vauto
p2600
sS'_dashSeq'
p2601
Nsg2247
g2248
sS'_marker'
p2602
g0
(cmatplotlib.markers
MarkerStyle
p2603
g2
Ntp2604
Rp2605
(dp2606
g2602
I2
sS'_alt_path'
p2607
NsS'_snap_threshold'
p2608
F1.0
sg148
g0
(g117
g2
Ntp2609
Rp2610
(dp2611
g48
I0
sg49
Nsg70
g71
(g72
(I0
tp2612
g74
tp2613
Rp2614
(I1
(I3
I3
tp2615
g81
I00
S'\x00\x00\x00\x00\x00\x00\xf0?\x00\x00\x00\x00\x00\x00\x00\x00\x00\x00\x00\x00\x00\x00\x00\x00\x00\x00\x00\x00\x00\x00\x00\x00\x00\x00\x00\x00\x00\x00\xf0?\x00\x00\x00\x00\x00\x00\x00\x00\x00\x00\x00\x00\x00\x00\x00\x00\x00\x00\x00\x00\x00\x00\x00\x00\x00\x00\x00\x00\x00\x00\xf0?'
p2616
tp2617
bsg50
g7
sg51
(dp2618
sbsS'_filled'
p2619
I00
sS'_fillstyle'
p2620
Vfull
p2621
sS'_alt_transform'
p2622
Nsg2135
Vbutt
p2623
sg139
Vround
p2624
sg1159
g0
(g1142
g2
Ntp2625
Rp2626
(dp2627
g1146
I00
sg1147
Nsg1148
g71
(g72
(I0
tp2628
g74
tp2629
Rp2630
(I1
(I2
I2
tp2631
g81
I00
S'\x00\x00\x00\x00\x00\x00\x00\x80\x00\x00\x00\x00\x00\x00\x00\x00\x00\x00\x00\x00\x00\x00\x00\x80\x00\x00\x00\x00\x00\x00\xf0?'
p2632
tp2633
bsg1155
I00
sg1156
F0.1111111111111111
sg1157
I1
sg1158
I00
sbsbsg32
NsS'_markerfacecoloralt'
p2634
Vnone
p2635
sg134
I01
sS'_markeredgecolor'
p2636
Vauto
p2637
sg137
NsS'_markersize'
p2638
F4.0
sg130
I00
sS'_xy'
p2639
g2068
sg141
VNone
p2640
sS'_xorig'
p2641
(g2542
tp2642
sg144
I0
sS'_drawstyle'
p2643
Vdefault
p2644
sS'ind_offset'
p2645
I0
sS'pickradius'
p2646
I5
sg145
I01
sg147
NsS'_dashjoinstyle'
p2647
g2580
sS'_invalidx'
p2648
I00
sg148
g214
sS'_invalidy'
p2649
I00
sS'zorder'
p2650
F2.01
sg42
Nsg2137
NsS'_yorig'
p2651
(I0
tp2652
sg132
Nsg131
F1.0
sg33
Nsg1159
g2073
sbsg145
I00
sS'gridline'
p2653
g0
(g2570
g2
Ntp2654
Rp2655
(dp2656
g6
g7
sg8
I01
sg2574
g2575
sg9
g4
sg2576
g2577
sg2578
Nsg10
Nsg41
Nsg17
g18
sg2579
g2580
sg20
I01
sg2581
Nsg23
Nsg55
g71
(g72
(I0
tp2657
g74
tp2658
Rp2659
(I1
(I2
tp2660
g81
I00
S'\x00\x00\x00\x00\x00\x00\x00\x00\x00\x00\x00\x00\x00\x00\xf0?'
p2661
tp2662
bsg56
g71
(g72
(I0
tp2663
g74
tp2664
Rp2665
(I1
(I2
tp2666
g81
I00
S'\x00\x00\x00\x00\x00\x00\x00\x00\x00\x00\x00\x00\x00\x00\x00\x00'
p2667
tp2668
bsg57
Nsg24
Nsg11
Nsg27
I00
sg2594
Nsg28
I00
sg29
(dp2669
sg2596
Nsg31
I00
sg2597
I00
sg2138
Nsg1141
Nsg2598
F0.5
sg2599
g2600
sg2601
Nsg2247
g2248
sg2602
g0
(g2603
g2
Ntp2670
Rp2671
(dp2672
g2602
VNone
p2673
sg2607
Nsg2608
Nsg148
g0
(g44
g2
Ntp2674
Rp2675
(dp2676
g48
I1
sg49
Nsg50
g7
sg51
(dp2677
sbsg2619
I00
sg2620
g2621
sg2622
Nsg2135
g2623
sg139
g2624
sg1159
g0
(g1142
g2
Ntp2678
Rp2679
(dp2680
g1146
I00
sg1147
Nsg1148
g71
(g72
(I0
tp2681
g74
tp2682
Rp2683
(I1
(I0
I2
tp2684
g81
I00
S''
p2685
tp2686
bsg1155
I00
sg1156
F0.1111111111111111
sg1157
I1
sg1158
I00
sbsbsg32
Nsg2634
g2635
sg134
I01
sg2636
g2637
sg137
Nsg2638
F0.0
sg130
I01
sg2639
g71
(g72
(I0
tp2687
g74
tp2688
Rp2689
(I1
(I2
I2
tp2690
g81
I00
S'\x00\x00\x00\x00\x00\x00\x00\x00\x00\x00\x00\x00\x00\x00\x00\x00\x00\x00\x00\x00\x00\x00\x00\x00\x00\x00\x00\x00\x00\x00\xf0?'
p2691
tp2692
bsg141
V:
p2693
sg2641
(F0.0
F0.0
tp2694
sg144
I0
sg2643
g2644
sg2645
I0
sg2646
I5
sg145
I01
sg147
F1.0
sg2647
g2580
sg2648
I00
sg148
g214
sg2649
I00
sg42
Nsg2137
Nsg2651
(I0
F1.0
tp2695
sg132
g783
sg131
F0.5
sg33
Nsg1159
g0
(g1142
g2
Ntp2696
Rp2697
(dp2698
g1146
I00
sg1147
Nsg1148
g2689
sg1155
I00
sg1156
F0.1111111111111111
sg1157
I180
sg1158
I00
sbsbsg147
Nsg32
NsS'tick2line'
p2699
g0
(g2570
g2
Ntp2700
Rp2701
(dp2702
g6
g7
sg8
I01
sg2574
g2575
sg9
g4
sg2576
g2577
sg2578
Nsg10
Nsg41
Nsg17
g18
sg2579
g2580
sg20
I01
sg2581
Nsg23
Nsg55
g71
(g72
(I0
tp2703
g74
tp2704
Rp2705
(I1
(I1
tp2706
g81
I00
S'\x00\x00\x00\x00\x00\x00\xf0?'
p2707
tp2708
bsg56
g71
(g72
(I0
tp2709
g74
tp2710
Rp2711
(I1
(I1
tp2712
g81
I00
S'\x00\x00\x00\x00\x00\x00\x00\x00'
p2713
tp2714
bsg57
Nsg24
Nsg11
Nsg27
I00
sg2594
Nsg28
I00
sg29
(dp2715
sg2596
Nsg31
I00
sg2597
I00
sg2138
Nsg1141
g2099
sg2598
F0.5
sg2599
g2600
sg2601
Nsg2247
g2248
sg2602
g0
(g2603
g2
Ntp2716
Rp2717
(dp2718
g2602
I3
sg2607
Nsg2608
F1.0
sg148
g0
(g117
g2
Ntp2719
Rp2720
(dp2721
g48
I0
sg49
Nsg70
g71
(g72
(I0
tp2722
g74
tp2723
Rp2724
(I1
(I3
I3
tp2725
g81
I00
S'\x00\x00\x00\x00\x00\x00\xf0?\x00\x00\x00\x00\x00\x00\x00\x00\x00\x00\x00\x00\x00\x00\x00\x00\x00\x00\x00\x00\x00\x00\x00\x00\x00\x00\x00\x00\x00\x00\xf0\xbf\x00\x00\x00\x00\x00\x00\x00\x00\x00\x00\x00\x00\x00\x00\x00\x00\x00\x00\x00\x00\x00\x00\x00\x00\x00\x00\x00\x00\x00\x00\xf0?'
p2726
tp2727
bsg50
g7
sg51
(dp2728
sbsg2619
I00
sg2620
g2621
sg2622
Nsg2135
g2623
sg139
g2624
sg1159
g2626
sbsg32
Nsg2634
g2635
sg134
I01
sg2636
g2637
sg137
Nsg2638
F4.0
sg130
I00
sg2639
g2106
sg141
VNone
p2729
sg2641
(g2542
tp2730
sg144
I0
sg2643
g2644
sg2645
I0
sg2646
I5
sg145
I01
sg147
Nsg2647
g2580
sg2648
I00
sg148
g214
sg2649
I00
sg2650
F2.01
sg42
Nsg2137
Nsg2651
(I1
tp2731
sg132
Nsg131
F1.0
sg33
Nsg1159
g2111
sbsg148
NsS'_labelsize'
p2732
g2475
sS'_name'
p2733
Vxtick
p2734
sg42
Nsg2247
g2248
sg33
Nsbag0
(g2523
g2
Ntp2735
Rp2736
(dp2737
g6
g7
sg39
F0.5
sg9
g4
sg2527
I01
sg8
I01
sg10
Nsg144
I0
sg41
Nsg2528
F4.0
sg2529
g2248
sg2530
I00
sg2230
F4.0
sg17
g18
sg2531
g2532
sg2483
g0
(g2214
g2
Ntp2738
Rp2739
(dp2740
g6
g7
sg8
I01
sg9
g4
sg10
Nsg2218
g0
(g2219
g2
Ntp2741
Rp2742
(dp2743
g2223
g2539
sg2226
Nsg2227
g2228
sg2229
g2228
sg2230
g2475
sg2232
I400
sg2233
g2228
sbsg41
Nsg17
g18
sg2234
Nsg20
I01
sg23
Nsg55
I0
sg56
g2380
(g81
S'\x9a\x99\x99\x99\x99\x99\xc9?'
p2744
tp2745
Rp2746
sg24
Nsg11
Nsg27
I00
sg28
I00
sg29
(dp2747
sg2236
Nsg31
I00
sg2138
Nsg132
Nsg2137
Nsg2237
Nsg32
Nsg137
Nsg130
I00
sg2238
g2544
sg2240
V0.2
p2748
sg2242
Nsg57
Nsg144
I0
sg2243
Nsg145
I01
sg147
Nsg2244
F1.2
sg148
g210
sg2245
Nsg2246
I00
sg42
Nsg2247
g2248
sg2249
g2546
sg33
Nsbsg20
I01
sg23
Nsg2547
I00
sg24
Nsg11
Nsg2548
I01
sg27
I00
sg28
I00
sg29
(dp2749
sg2550
(I2
I3
tp2750
sg31
I00
sg2552
F2.01
sg2138
g2192
sg2553
I01
sg132
g993
sg2137
Nsg2554
g2739
sg2555
g0
(g2214
g2
Ntp2751
Rp2752
(dp2753
g6
g7
sg8
I01
sg9
g4
sg10
Nsg2218
g0
(g2219
g2
Ntp2754
Rp2755
(dp2756
g2223
g2562
sg2226
Nsg2227
g2228
sg2229
g2228
sg2230
g2475
sg2232
I400
sg2233
g2228
sbsg41
Nsg17
g18
sg2234
Nsg20
I01
sg23
Nsg55
I1
sg56
I0
sg24
Nsg11
Nsg27
I00
sg28
I00
sg29
(dp2757
sg2236
Nsg31
I00
sg2138
Nsg132
Nsg2137
Nsg2237
Nsg32
Nsg137
Nsg130
I01
sg2238
g2564
sg2240
V0.2
p2758
sg2242
Nsg57
Nsg144
I0
sg2243
Nsg145
I01
sg147
Nsg2244
F1.2
sg148
g1920
sg2245
Nsg2246
I00
sg42
Nsg2247
g2248
sg2249
g2566
sg33
Nsbsg137
Nsg2567
g2746
sg130
I00
sg57
Nsg2568
F4.0
sg2569
g0
(g2570
g2
Ntp2759
Rp2760
(dp2761
g6
g7
sg8
I01
sg2574
g2575
sg9
g4
sg2576
g2577
sg2578
Nsg10
Nsg41
Nsg17
g18
sg2579
g2580
sg20
I01
sg2581
Nsg23
Nsg55
g71
(g72
(I0
tp2762
g74
tp2763
Rp2764
(I1
(I1
tp2765
g81
I00
S'\x00\x00\x00\x00\x00\x00\x00\x00'
p2766
tp2767
bsg56
g71
(g72
(I0
tp2768
g74
tp2769
Rp2770
(I1
(I1
tp2771
g81
I00
S'\x9a\x99\x99\x99\x99\x99\xc9?'
p2772
tp2773
bsg57
Nsg24
Nsg11
Nsg27
I00
sg2594
Nsg28
I00
sg29
(dp2774
sg2596
Nsg31
I00
sg2597
I00
sg2138
Nsg1141
g2004
sg2598
F0.5
sg2599
g2600
sg2601
Nsg2247
g2248
sg2602
g0
(g2603
g2
Ntp2775
Rp2776
(dp2777
g2602
I2
sg2607
Nsg2608
F1.0
sg148
g0
(g117
g2
Ntp2778
Rp2779
(dp2780
g48
I0
sg49
Nsg70
g71
(g72
(I0
tp2781
g74
tp2782
Rp2783
(I1
(I3
I3
tp2784
g81
I00
S'\x00\x00\x00\x00\x00\x00\xf0?\x00\x00\x00\x00\x00\x00\x00\x00\x00\x00\x00\x00\x00\x00\x00\x00\x00\x00\x00\x00\x00\x00\x00\x00\x00\x00\x00\x00\x00\x00\xf0?\x00\x00\x00\x00\x00\x00\x00\x00\x00\x00\x00\x00\x00\x00\x00\x00\x00\x00\x00\x00\x00\x00\x00\x00\x00\x00\x00\x00\x00\x00\xf0?'
p2785
tp2786
bsg50
g7
sg51
(dp2787
sbsg2619
I00
sg2620
g2621
sg2622
Nsg2135
g2623
sg139
g2624
sg1159
g2626
sbsg32
Nsg2634
g2635
sg134
I01
sg2636
g2637
sg137
Nsg2638
F4.0
sg130
I00
sg2639
g2011
sg141
g2640
sg2641
(g2746
tp2788
sg144
I0
sg2643
g2644
sg2645
I0
sg2646
I5
sg145
I01
sg147
Nsg2647
g2580
sg2648
I00
sg148
g214
sg2649
I00
sg2650
F2.01
sg42
Nsg2137
Nsg2651
g2652
sg132
Nsg131
F1.0
sg33
Nsg1159
g2016
sbsg145
I00
sg2653
g0
(g2570
g2
Ntp2789
Rp2790
(dp2791
g6
g7
sg8
I01
sg2574
g2575
sg9
g4
sg2576
g2577
sg2578
Nsg10
Nsg41
Nsg17
g18
sg2579
g2580
sg20
I01
sg2581
Nsg23
Nsg55
g71
(g72
(I0
tp2792
g74
tp2793
Rp2794
(I1
(I2
tp2795
g81
I00
S'\x00\x00\x00\x00\x00\x00\x00\x00\x00\x00\x00\x00\x00\x00\xf0?'
p2796
tp2797
bsg56
g71
(g72
(I0
tp2798
g74
tp2799
Rp2800
(I1
(I2
tp2801
g81
I00
S'\x00\x00\x00\x00\x00\x00\x00\x00\x00\x00\x00\x00\x00\x00\x00\x00'
p2802
tp2803
bsg57
Nsg24
Nsg11
Nsg27
I00
sg2594
Nsg28
I00
sg29
(dp2804
sg2596
Nsg31
I00
sg2597
I00
sg2138
Nsg1141
Nsg2598
F0.5
sg2599
g2600
sg2601
Nsg2247
g2248
sg2602
g0
(g2603
g2
Ntp2805
Rp2806
(dp2807
g2602
g2673
sg2607
Nsg2608
Nsg148
g0
(g44
g2
Ntp2808
Rp2809
(dp2810
g48
I1
sg49
Nsg50
g7
sg51
(dp2811
sbsg2619
I00
sg2620
g2621
sg2622
Nsg2135
g2623
sg139
g2624
sg1159
g0
(g1142
g2
Ntp2812
Rp2813
(dp2814
g1146
I00
sg1147
Nsg1148
g71
(g72
(I0
tp2815
g74
tp2816
Rp2817
(I1
(I0
I2
tp2818
g81
I00
g2685
tp2819
bsg1155
I00
sg1156
F0.1111111111111111
sg1157
I1
sg1158
I00
sbsbsg32
Nsg2634
g2635
sg134
I01
sg2636
g2637
sg137
Nsg2638
F0.0
sg130
I01
sg2639
g71
(g72
(I0
tp2820
g74
tp2821
Rp2822
(I1
(I2
I2
tp2823
g81
I00
S'\x00\x00\x00\x00\x00\x00\x00\x00\x00\x00\x00\x00\x00\x00\x00\x00\x00\x00\x00\x00\x00\x00\x00\x00\x00\x00\x00\x00\x00\x00\xf0?'
p2824
tp2825
bsg141
g2693
sg2641
g2694
sg144
I0
sg2643
g2644
sg2645
I0
sg2646
I5
sg145
I01
sg147
F1.0
sg2647
g2580
sg2648
I00
sg148
g214
sg2649
I00
sg42
Nsg2137
Nsg2651
g2695
sg132
g783
sg131
F0.5
sg33
Nsg1159
g0
(g1142
g2
Ntp2826
Rp2827
(dp2828
g1146
I00
sg1147
Nsg1148
g2822
sg1155
I00
sg1156
F0.1111111111111111
sg1157
I180
sg1158
I00
sbsbsg147
Nsg32
Nsg2699
g0
(g2570
g2
Ntp2829
Rp2830
(dp2831
g6
g7
sg8
I01
sg2574
g2575
sg9
g4
sg2576
g2577
sg2578
Nsg10
Nsg41
Nsg17
g18
sg2579
g2580
sg20
I01
sg2581
Nsg23
Nsg55
g71
(g72
(I0
tp2832
g74
tp2833
Rp2834
(I1
(I1
tp2835
g81
I00
S'\x00\x00\x00\x00\x00\x00\xf0?'
p2836
tp2837
bsg56
g71
(g72
(I0
tp2838
g74
tp2839
Rp2840
(I1
(I1
tp2841
g81
I00
S'\x9a\x99\x99\x99\x99\x99\xc9?'
p2842
tp2843
bsg57
Nsg24
Nsg11
Nsg27
I00
sg2594
Nsg28
I00
sg29
(dp2844
sg2596
Nsg31
I00
sg2597
I00
sg2138
Nsg1141
g2042
sg2598
F0.5
sg2599
g2600
sg2601
Nsg2247
g2248
sg2602
g0
(g2603
g2
Ntp2845
Rp2846
(dp2847
g2602
I3
sg2607
Nsg2608
F1.0
sg148
g0
(g117
g2
Ntp2848
Rp2849
(dp2850
g48
I0
sg49
Nsg70
g71
(g72
(I0
tp2851
g74
tp2852
Rp2853
(I1
(I3
I3
tp2854
g81
I00
S'\x00\x00\x00\x00\x00\x00\xf0?\x00\x00\x00\x00\x00\x00\x00\x00\x00\x00\x00\x00\x00\x00\x00\x00\x00\x00\x00\x00\x00\x00\x00\x00\x00\x00\x00\x00\x00\x00\xf0\xbf\x00\x00\x00\x00\x00\x00\x00\x00\x00\x00\x00\x00\x00\x00\x00\x00\x00\x00\x00\x00\x00\x00\x00\x00\x00\x00\x00\x00\x00\x00\xf0?'
p2855
tp2856
bsg50
g7
sg51
(dp2857
sbsg2619
I00
sg2620
g2621
sg2622
Nsg2135
g2623
sg139
g2624
sg1159
g2626
sbsg32
Nsg2634
g2635
sg134
I01
sg2636
g2637
sg137
Nsg2638
F4.0
sg130
I00
sg2639
g2049
sg141
g2729
sg2641
(g2746
tp2858
sg144
I0
sg2643
g2644
sg2645
I0
sg2646
I5
sg145
I01
sg147
Nsg2647
g2580
sg2648
I00
sg148
g214
sg2649
I00
sg2650
F2.01
sg42
Nsg2137
Nsg2651
g2731
sg132
Nsg131
F1.0
sg33
Nsg1159
g2054
sbsg148
Nsg2732
g2475
sg2733
g2734
sg42
Nsg2247
g2248
sg33
Nsbag0
(g2523
g2
Ntp2859
Rp2860
(dp2861
g6
g7
sg39
F0.5
sg9
g4
sg2527
I01
sg8
I01
sg10
Nsg144
I0
sg41
Nsg2528
F4.0
sg2529
g2248
sg2530
I00
sg2230
F4.0
sg17
g18
sg2531
g2532
sg2483
g0
(g2214
g2
Ntp2862
Rp2863
(dp2864
g6
g7
sg8
I01
sg9
g4
sg10
Nsg2218
g0
(g2219
g2
Ntp2865
Rp2866
(dp2867
g2223
g2539
sg2226
Nsg2227
g2228
sg2229
g2228
sg2230
g2475
sg2232
I400
sg2233
g2228
sbsg41
Nsg17
g18
sg2234
Nsg20
I01
sg23
Nsg55
I0
sg56
g2380
(g81
S'\x9a\x99\x99\x99\x99\x99\xd9?'
p2868
tp2869
Rp2870
sg24
Nsg11
Nsg27
I00
sg28
I00
sg29
(dp2871
sg2236
Nsg31
I00
sg2138
Nsg132
Nsg2137
Nsg2237
Nsg32
Nsg137
Nsg130
I00
sg2238
g2544
sg2240
V0.4
p2872
sg2242
Nsg57
Nsg144
I0
sg2243
Nsg145
I01
sg147
Nsg2244
F1.2
sg148
g210
sg2245
Nsg2246
I00
sg42
Nsg2247
g2248
sg2249
g2546
sg33
Nsbsg20
I01
sg23
Nsg2547
I00
sg24
Nsg11
Nsg2548
I01
sg27
I00
sg28
I00
sg29
(dp2873
sg2550
(I2
I3
tp2874
sg31
I00
sg2552
F2.01
sg2138
g2192
sg2553
I01
sg132
Nsg2137
Nsg2554
g2863
sg2555
g0
(g2214
g2
Ntp2875
Rp2876
(dp2877
g6
g7
sg8
I01
sg9
g4
sg10
Nsg2218
g0
(g2219
g2
Ntp2878
Rp2879
(dp2880
g2223
g2562
sg2226
Nsg2227
g2228
sg2229
g2228
sg2230
g2475
sg2232
I400
sg2233
g2228
sbsg41
Nsg17
g18
sg2234
Nsg20
I01
sg23
Nsg55
I1
sg56
I0
sg24
Nsg11
Nsg27
I00
sg28
I00
sg29
(dp2881
sg2236
Nsg31
I00
sg2138
Nsg132
Nsg2137
Nsg2237
Nsg32
Nsg137
Nsg130
I01
sg2238
g2564
sg2240
V0.4
p2882
sg2242
Nsg57
Nsg144
I0
sg2243
Nsg145
I01
sg147
Nsg2244
F1.2
sg148
g1920
sg2245
Nsg2246
I00
sg42
Nsg2247
g2248
sg2249
g2566
sg33
Nsbsg137
Nsg2567
g2870
sg130
I00
sg57
Nsg2568
F4.0
sg2569
g0
(g2570
g2
Ntp2883
Rp2884
(dp2885
g6
g7
sg8
I01
sg2574
g2575
sg9
g4
sg2576
g2577
sg2578
Nsg10
Nsg41
Nsg17
g18
sg2579
g2580
sg20
I01
sg2581
Nsg23
Nsg55
g71
(g72
(I0
tp2886
g74
tp2887
Rp2888
(I1
(I1
tp2889
g81
I00
S'\x00\x00\x00\x00\x00\x00\x00\x00'
p2890
tp2891
bsg56
g71
(g72
(I0
tp2892
g74
tp2893
Rp2894
(I1
(I1
tp2895
g81
I00
S'\x9a\x99\x99\x99\x99\x99\xd9?'
p2896
tp2897
bsg57
Nsg24
Nsg11
Nsg27
I00
sg2594
Nsg28
I00
sg29
(dp2898
sg2596
Nsg31
I00
sg2597
I00
sg2138
Nsg1141
g1976
sg2598
F0.5
sg2599
g2600
sg2601
Nsg2247
g2248
sg2602
g0
(g2603
g2
Ntp2899
Rp2900
(dp2901
g2602
I2
sg2607
Nsg2608
F1.0
sg148
g0
(g117
g2
Ntp2902
Rp2903
(dp2904
g48
I0
sg49
Nsg70
g71
(g72
(I0
tp2905
g74
tp2906
Rp2907
(I1
(I3
I3
tp2908
g81
I00
S'\x00\x00\x00\x00\x00\x00\xf0?\x00\x00\x00\x00\x00\x00\x00\x00\x00\x00\x00\x00\x00\x00\x00\x00\x00\x00\x00\x00\x00\x00\x00\x00\x00\x00\x00\x00\x00\x00\xf0?\x00\x00\x00\x00\x00\x00\x00\x00\x00\x00\x00\x00\x00\x00\x00\x00\x00\x00\x00\x00\x00\x00\x00\x00\x00\x00\x00\x00\x00\x00\xf0?'
p2909
tp2910
bsg50
g7
sg51
(dp2911
sbsg2619
I00
sg2620
g2621
sg2622
Nsg2135
g2623
sg139
g2624
sg1159
g2626
sbsg32
Nsg2634
g2635
sg134
I01
sg2636
g2637
sg137
Nsg2638
F4.0
sg130
I00
sg2639
g1983
sg141
g2640
sg2641
(g2870
tp2912
sg144
I0
sg2643
g2644
sg2645
I0
sg2646
I5
sg145
I01
sg147
Nsg2647
g2580
sg2648
I00
sg148
g214
sg2649
I00
sg2650
F2.01
sg42
Nsg2137
Nsg2651
g2652
sg132
Nsg131
F1.0
sg33
Nsg1159
g1988
sbsg145
I00
sg2653
g0
(g2570
g2
Ntp2913
Rp2914
(dp2915
g6
g7
sg8
I01
sg2574
g2575
sg9
g4
sg2576
g2577
sg2578
Nsg10
Nsg41
Nsg17
g18
sg2579
g2580
sg20
I01
sg2581
Nsg23
Nsg55
g71
(g72
(I0
tp2916
g74
tp2917
Rp2918
(I1
(I2
tp2919
g81
I00
S'\x00\x00\x00\x00\x00\x00\x00\x00\x00\x00\x00\x00\x00\x00\xf0?'
p2920
tp2921
bsg56
g71
(g72
(I0
tp2922
g74
tp2923
Rp2924
(I1
(I2
tp2925
g81
I00
S'\x00\x00\x00\x00\x00\x00\x00\x00\x00\x00\x00\x00\x00\x00\x00\x00'
p2926
tp2927
bsg57
Nsg24
Nsg11
Nsg27
I00
sg2594
Nsg28
I00
sg29
(dp2928
sg2596
Nsg31
I00
sg2597
I00
sg2138
Nsg1141
Nsg2598
F0.5
sg2599
g2600
sg2601
Nsg2247
g2248
sg2602
g0
(g2603
g2
Ntp2929
Rp2930
(dp2931
g2602
g2673
sg2607
Nsg2608
Nsg148
g0
(g44
g2
Ntp2932
Rp2933
(dp2934
g48
I1
sg49
Nsg50
g7
sg51
(dp2935
sbsg2619
I00
sg2620
g2621
sg2622
Nsg2135
g2623
sg139
g2624
sg1159
g0
(g1142
g2
Ntp2936
Rp2937
(dp2938
g1146
I00
sg1147
Nsg1148
g71
(g72
(I0
tp2939
g74
tp2940
Rp2941
(I1
(I0
I2
tp2942
g81
I00
g2685
tp2943
bsg1155
I00
sg1156
F0.1111111111111111
sg1157
I1
sg1158
I00
sbsbsg32
Nsg2634
g2635
sg134
I01
sg2636
g2637
sg137
Nsg2638
F0.0
sg130
I01
sg2639
g71
(g72
(I0
tp2944
g74
tp2945
Rp2946
(I1
(I2
I2
tp2947
g81
I00
S'\x00\x00\x00\x00\x00\x00\x00\x00\x00\x00\x00\x00\x00\x00\x00\x00\x00\x00\x00\x00\x00\x00\x00\x00\x00\x00\x00\x00\x00\x00\xf0?'
p2948
tp2949
bsg141
g2693
sg2641
g2694
sg144
I0
sg2643
g2644
sg2645
I0
sg2646
I5
sg145
I01
sg147
F1.0
sg2647
g2580
sg2648
I00
sg148
g214
sg2649
I00
sg42
Nsg2137
Nsg2651
g2695
sg132
g783
sg131
F0.5
sg33
Nsg1159
g0
(g1142
g2
Ntp2950
Rp2951
(dp2952
g1146
I00
sg1147
Nsg1148
g2946
sg1155
I00
sg1156
F0.1111111111111111
sg1157
I180
sg1158
I00
sbsbsg147
Nsg32
Nsg2699
g0
(g2570
g2
Ntp2953
Rp2954
(dp2955
g6
g7
sg8
I01
sg2574
g2575
sg9
g4
sg2576
g2577
sg2578
Nsg10
Nsg41
Nsg17
g18
sg2579
g2580
sg20
I01
sg2581
Nsg23
Nsg55
g71
(g72
(I0
tp2956
g74
tp2957
Rp2958
(I1
(I1
tp2959
g81
I00
S'\x00\x00\x00\x00\x00\x00\xf0?'
p2960
tp2961
bsg56
g71
(g72
(I0
tp2962
g74
tp2963
Rp2964
(I1
(I1
tp2965
g81
I00
S'\x9a\x99\x99\x99\x99\x99\xd9?'
p2966
tp2967
bsg57
Nsg24
Nsg11
Nsg27
I00
sg2594
Nsg28
I00
sg29
(dp2968
sg2596
Nsg31
I00
sg2597
I00
sg2138
Nsg1141
g1901
sg2598
F0.5
sg2599
g2600
sg2601
Nsg2247
g2248
sg2602
g0
(g2603
g2
Ntp2969
Rp2970
(dp2971
g2602
I3
sg2607
Nsg2608
F1.0
sg148
g0
(g117
g2
Ntp2972
Rp2973
(dp2974
g48
I0
sg49
Nsg70
g71
(g72
(I0
tp2975
g74
tp2976
Rp2977
(I1
(I3
I3
tp2978
g81
I00
S'\x00\x00\x00\x00\x00\x00\xf0?\x00\x00\x00\x00\x00\x00\x00\x00\x00\x00\x00\x00\x00\x00\x00\x00\x00\x00\x00\x00\x00\x00\x00\x00\x00\x00\x00\x00\x00\x00\xf0\xbf\x00\x00\x00\x00\x00\x00\x00\x00\x00\x00\x00\x00\x00\x00\x00\x00\x00\x00\x00\x00\x00\x00\x00\x00\x00\x00\x00\x00\x00\x00\xf0?'
p2979
tp2980
bsg50
g7
sg51
(dp2981
sbsg2619
I00
sg2620
g2621
sg2622
Nsg2135
g2623
sg139
g2624
sg1159
g2626
sbsg32
Nsg2634
g2635
sg134
I01
sg2636
g2637
sg137
Nsg2638
F4.0
sg130
I00
sg2639
g1908
sg141
g2729
sg2641
(g2870
tp2982
sg144
I0
sg2643
g2644
sg2645
I0
sg2646
I5
sg145
I01
sg147
Nsg2647
g2580
sg2648
I00
sg148
g214
sg2649
I00
sg2650
F2.01
sg42
Nsg2137
Nsg2651
g2731
sg132
Nsg131
F1.0
sg33
Nsg1159
g1913
sbsg148
Nsg2732
g2475
sg2733
g2734
sg42
Nsg2247
g2248
sg33
Nsbag0
(g2523
g2
Ntp2983
Rp2984
(dp2985
g6
g7
sg39
F0.5
sg9
g4
sg2527
I01
sg8
I01
sg10
Nsg144
I0
sg41
Nsg2528
F4.0
sg2529
g2248
sg2530
I00
sg2230
F4.0
sg17
g18
sg2531
g2532
sg2483
g0
(g2214
g2
Ntp2986
Rp2987
(dp2988
g6
g7
sg8
I01
sg9
g4
sg10
Nsg2218
g0
(g2219
g2
Ntp2989
Rp2990
(dp2991
g2223
g2539
sg2226
Nsg2227
g2228
sg2229
g2228
sg2230
g2475
sg2232
I400
sg2233
g2228
sbsg41
Nsg17
g18
sg2234
Nsg20
I01
sg23
Nsg55
I0
sg56
g2380
(g81
S'433333\xe3?'
p2992
tp2993
Rp2994
sg24
Nsg11
Nsg27
I00
sg28
I00
sg29
(dp2995
sg2236
Nsg31
I00
sg2138
Nsg132
Nsg2137
Nsg2237
Nsg32
Nsg137
Nsg130
I00
sg2238
g2544
sg2240
V0.6
p2996
sg2242
Nsg57
Nsg144
I0
sg2243
Nsg145
I01
sg147
Nsg2244
F1.2
sg148
g210
sg2245
Nsg2246
I00
sg42
Nsg2247
g2248
sg2249
g2546
sg33
Nsbsg20
I01
sg23
Nsg2547
I00
sg24
Nsg11
Nsg2548
I01
sg27
I00
sg28
I00
sg29
(dp2997
sg2550
(I2
I3
tp2998
sg31
I00
sg2552
F2.01
sg2138
g2192
sg2553
I01
sg132
Nsg2137
Nsg2554
g2987
sg2555
g0
(g2214
g2
Ntp2999
Rp3000
(dp3001
g6
g7
sg8
I01
sg9
g4
sg10
Nsg2218
g0
(g2219
g2
Ntp3002
Rp3003
(dp3004
g2223
g2562
sg2226
Nsg2227
g2228
sg2229
g2228
sg2230
g2475
sg2232
I400
sg2233
g2228
sbsg41
Nsg17
g18
sg2234
Nsg20
I01
sg23
Nsg55
I1
sg56
I0
sg24
Nsg11
Nsg27
I00
sg28
I00
sg29
(dp3005
sg2236
Nsg31
I00
sg2138
Nsg132
Nsg2137
Nsg2237
Nsg32
Nsg137
Nsg130
I01
sg2238
g2564
sg2240
V0.6
p3006
sg2242
Nsg57
Nsg144
I0
sg2243
Nsg145
I01
sg147
Nsg2244
F1.2
sg148
g1920
sg2245
Nsg2246
I00
sg42
Nsg2247
g2248
sg2249
g2566
sg33
Nsbsg137
Nsg2567
g2994
sg130
I00
sg57
Nsg2568
F4.0
sg2569
g0
(g2570
g2
Ntp3007
Rp3008
(dp3009
g6
g7
sg8
I01
sg2574
g2575
sg9
g4
sg2576
g2577
sg2578
Nsg10
Nsg41
Nsg17
g18
sg2579
g2580
sg20
I01
sg2581
Nsg23
Nsg55
g71
(g72
(I0
tp3010
g74
tp3011
Rp3012
(I1
(I1
tp3013
g81
I00
S'\x00\x00\x00\x00\x00\x00\x00\x00'
p3014
tp3015
bsg56
g71
(g72
(I0
tp3016
g74
tp3017
Rp3018
(I1
(I1
tp3019
g81
I00
S'433333\xe3?'
p3020
tp3021
bsg57
Nsg24
Nsg11
Nsg27
I00
sg2594
Nsg28
I00
sg29
(dp3022
sg2596
Nsg31
I00
sg2597
I00
sg2138
Nsg1141
g1882
sg2598
F0.5
sg2599
g2600
sg2601
Nsg2247
g2248
sg2602
g0
(g2603
g2
Ntp3023
Rp3024
(dp3025
g2602
I2
sg2607
Nsg2608
F1.0
sg148
g0
(g117
g2
Ntp3026
Rp3027
(dp3028
g48
I0
sg49
Nsg70
g71
(g72
(I0
tp3029
g74
tp3030
Rp3031
(I1
(I3
I3
tp3032
g81
I00
S'\x00\x00\x00\x00\x00\x00\xf0?\x00\x00\x00\x00\x00\x00\x00\x00\x00\x00\x00\x00\x00\x00\x00\x00\x00\x00\x00\x00\x00\x00\x00\x00\x00\x00\x00\x00\x00\x00\xf0?\x00\x00\x00\x00\x00\x00\x00\x00\x00\x00\x00\x00\x00\x00\x00\x00\x00\x00\x00\x00\x00\x00\x00\x00\x00\x00\x00\x00\x00\x00\xf0?'
p3033
tp3034
bsg50
g7
sg51
(dp3035
sbsg2619
I00
sg2620
g2621
sg2622
Nsg2135
g2623
sg139
g2624
sg1159
g2626
sbsg32
Nsg2634
g2635
sg134
I01
sg2636
g2637
sg137
Nsg2638
F4.0
sg130
I00
sg2639
g1889
sg141
g2640
sg2641
(g2994
tp3036
sg144
I0
sg2643
g2644
sg2645
I0
sg2646
I5
sg145
I01
sg147
Nsg2647
g2580
sg2648
I00
sg148
g214
sg2649
I00
sg2650
F2.01
sg42
Nsg2137
Nsg2651
g2652
sg132
Nsg131
F1.0
sg33
Nsg1159
g1894
sbsg145
I00
sg2653
g0
(g2570
g2
Ntp3037
Rp3038
(dp3039
g6
g7
sg8
I01
sg2574
g2575
sg9
g4
sg2576
g2577
sg2578
Nsg10
Nsg41
Nsg17
g18
sg2579
g2580
sg20
I01
sg2581
Nsg23
Nsg55
g71
(g72
(I0
tp3040
g74
tp3041
Rp3042
(I1
(I2
tp3043
g81
I00
S'\x00\x00\x00\x00\x00\x00\x00\x00\x00\x00\x00\x00\x00\x00\xf0?'
p3044
tp3045
bsg56
g71
(g72
(I0
tp3046
g74
tp3047
Rp3048
(I1
(I2
tp3049
g81
I00
S'\x00\x00\x00\x00\x00\x00\x00\x00\x00\x00\x00\x00\x00\x00\x00\x00'
p3050
tp3051
bsg57
Nsg24
Nsg11
Nsg27
I00
sg2594
Nsg28
I00
sg29
(dp3052
sg2596
Nsg31
I00
sg2597
I00
sg2138
Nsg1141
Nsg2598
F0.5
sg2599
g2600
sg2601
Nsg2247
g2248
sg2602
g0
(g2603
g2
Ntp3053
Rp3054
(dp3055
g2602
g2673
sg2607
Nsg2608
Nsg148
g0
(g44
g2
Ntp3056
Rp3057
(dp3058
g48
I1
sg49
Nsg50
g7
sg51
(dp3059
sbsg2619
I00
sg2620
g2621
sg2622
Nsg2135
g2623
sg139
g2624
sg1159
g0
(g1142
g2
Ntp3060
Rp3061
(dp3062
g1146
I00
sg1147
Nsg1148
g71
(g72
(I0
tp3063
g74
tp3064
Rp3065
(I1
(I0
I2
tp3066
g81
I00
g2685
tp3067
bsg1155
I00
sg1156
F0.1111111111111111
sg1157
I1
sg1158
I00
sbsbsg32
Nsg2634
g2635
sg134
I01
sg2636
g2637
sg137
Nsg2638
F0.0
sg130
I01
sg2639
g71
(g72
(I0
tp3068
g74
tp3069
Rp3070
(I1
(I2
I2
tp3071
g81
I00
S'\x00\x00\x00\x00\x00\x00\x00\x00\x00\x00\x00\x00\x00\x00\x00\x00\x00\x00\x00\x00\x00\x00\x00\x00\x00\x00\x00\x00\x00\x00\xf0?'
p3072
tp3073
bsg141
g2693
sg2641
g2694
sg144
I0
sg2643
g2644
sg2645
I0
sg2646
I5
sg145
I01
sg147
F1.0
sg2647
g2580
sg2648
I00
sg148
g214
sg2649
I00
sg42
Nsg2137
Nsg2651
g2695
sg132
g783
sg131
F0.5
sg33
Nsg1159
g0
(g1142
g2
Ntp3074
Rp3075
(dp3076
g1146
I00
sg1147
Nsg1148
g3070
sg1155
I00
sg1156
F0.1111111111111111
sg1157
I180
sg1158
I00
sbsbsg147
Nsg32
Nsg2699
g0
(g2570
g2
Ntp3077
Rp3078
(dp3079
g6
g7
sg8
I01
sg2574
g2575
sg9
g4
sg2576
g2577
sg2578
Nsg10
Nsg41
Nsg17
g18
sg2579
g2580
sg20
I01
sg2581
Nsg23
Nsg55
g71
(g72
(I0
tp3080
g74
tp3081
Rp3082
(I1
(I1
tp3083
g81
I00
S'\x00\x00\x00\x00\x00\x00\xf0?'
p3084
tp3085
bsg56
g71
(g72
(I0
tp3086
g74
tp3087
Rp3088
(I1
(I1
tp3089
g81
I00
S'433333\xe3?'
p3090
tp3091
bsg57
Nsg24
Nsg11
Nsg27
I00
sg2594
Nsg28
I00
sg29
(dp3092
sg2596
Nsg31
I00
sg2597
I00
sg2138
Nsg1141
g2023
sg2598
F0.5
sg2599
g2600
sg2601
Nsg2247
g2248
sg2602
g0
(g2603
g2
Ntp3093
Rp3094
(dp3095
g2602
I3
sg2607
Nsg2608
F1.0
sg148
g0
(g117
g2
Ntp3096
Rp3097
(dp3098
g48
I0
sg49
Nsg70
g71
(g72
(I0
tp3099
g74
tp3100
Rp3101
(I1
(I3
I3
tp3102
g81
I00
S'\x00\x00\x00\x00\x00\x00\xf0?\x00\x00\x00\x00\x00\x00\x00\x00\x00\x00\x00\x00\x00\x00\x00\x00\x00\x00\x00\x00\x00\x00\x00\x00\x00\x00\x00\x00\x00\x00\xf0\xbf\x00\x00\x00\x00\x00\x00\x00\x00\x00\x00\x00\x00\x00\x00\x00\x00\x00\x00\x00\x00\x00\x00\x00\x00\x00\x00\x00\x00\x00\x00\xf0?'
p3103
tp3104
bsg50
g7
sg51
(dp3105
sbsg2619
I00
sg2620
g2621
sg2622
Nsg2135
g2623
sg139
g2624
sg1159
g2626
sbsg32
Nsg2634
g2635
sg134
I01
sg2636
g2637
sg137
Nsg2638
F4.0
sg130
I00
sg2639
g2030
sg141
g2729
sg2641
(g2994
tp3106
sg144
I0
sg2643
g2644
sg2645
I0
sg2646
I5
sg145
I01
sg147
Nsg2647
g2580
sg2648
I00
sg148
g214
sg2649
I00
sg2650
F2.01
sg42
Nsg2137
Nsg2651
g2731
sg132
Nsg131
F1.0
sg33
Nsg1159
g2035
sbsg148
Nsg2732
g2475
sg2733
g2734
sg42
Nsg2247
g2248
sg33
Nsbag0
(g2523
g2
Ntp3107
Rp3108
(dp3109
g6
g7
sg39
F0.5
sg9
g4
sg2527
I01
sg8
I01
sg10
Nsg144
I0
sg41
Nsg2528
F4.0
sg2529
g2248
sg2530
I00
sg2230
F4.0
sg17
g18
sg2531
g2532
sg2483
g0
(g2214
g2
Ntp3110
Rp3111
(dp3112
g6
g7
sg8
I01
sg9
g4
sg10
Nsg2218
g0
(g2219
g2
Ntp3113
Rp3114
(dp3115
g2223
g2539
sg2226
Nsg2227
g2228
sg2229
g2228
sg2230
g2475
sg2232
I400
sg2233
g2228
sbsg41
Nsg17
g18
sg2234
Nsg20
I01
sg23
Nsg55
I0
sg56
g2380
(g81
S'\x9a\x99\x99\x99\x99\x99\xe9?'
p3116
tp3117
Rp3118
sg24
Nsg11
Nsg27
I00
sg28
I00
sg29
(dp3119
sg2236
Nsg31
I00
sg2138
Nsg132
Nsg2137
Nsg2237
Nsg32
Nsg137
Nsg130
I00
sg2238
g2544
sg2240
V0.8
p3120
sg2242
Nsg57
Nsg144
I0
sg2243
Nsg145
I01
sg147
Nsg2244
F1.2
sg148
g210
sg2245
Nsg2246
I00
sg42
Nsg2247
g2248
sg2249
g2546
sg33
Nsbsg20
I01
sg23
Nsg2547
I00
sg24
Nsg11
Nsg2548
I01
sg27
I00
sg28
I00
sg29
(dp3121
sg2550
(I2
I3
tp3122
sg31
I00
sg2552
F2.01
sg2138
g2192
sg2553
I01
sg132
Nsg2137
Nsg2554
g3111
sg2555
g0
(g2214
g2
Ntp3123
Rp3124
(dp3125
g6
g7
sg8
I01
sg9
g4
sg10
Nsg2218
g0
(g2219
g2
Ntp3126
Rp3127
(dp3128
g2223
g2562
sg2226
Nsg2227
g2228
sg2229
g2228
sg2230
g2475
sg2232
I400
sg2233
g2228
sbsg41
Nsg17
g18
sg2234
Nsg20
I01
sg23
Nsg55
I1
sg56
I0
sg24
Nsg11
Nsg27
I00
sg28
I00
sg29
(dp3129
sg2236
Nsg31
I00
sg2138
Nsg132
Nsg2137
Nsg2237
Nsg32
Nsg137
Nsg130
I01
sg2238
g2564
sg2240
V0.8
p3130
sg2242
Nsg57
Nsg144
I0
sg2243
Nsg145
I01
sg147
Nsg2244
F1.2
sg148
g1920
sg2245
Nsg2246
I00
sg42
Nsg2247
g2248
sg2249
g2566
sg33
Nsbsg137
Nsg2567
g3118
sg130
I00
sg57
Nsg2568
F4.0
sg2569
g0
(g2570
g2
Ntp3131
Rp3132
(dp3133
g6
g7
sg8
I01
sg2574
g2575
sg9
g4
sg2576
g2577
sg2578
Nsg10
Nsg41
Nsg17
g18
sg2579
g2580
sg20
I01
sg2581
Nsg23
Nsg55
g71
(g72
(I0
tp3134
g74
tp3135
Rp3136
(I1
(I1
tp3137
g81
I00
S'\x00\x00\x00\x00\x00\x00\x00\x00'
p3138
tp3139
bsg56
g71
(g72
(I0
tp3140
g74
tp3141
Rp3142
(I1
(I1
tp3143
g81
I00
S'\x9a\x99\x99\x99\x99\x99\xe9?'
p3144
tp3145
bsg57
Nsg24
Nsg11
Nsg27
I00
sg2594
Nsg28
I00
sg29
(dp3146
sg2596
Nsg31
I00
sg2597
I00
sg2138
Nsg1141
g1863
sg2598
F0.5
sg2599
g2600
sg2601
Nsg2247
g2248
sg2602
g0
(g2603
g2
Ntp3147
Rp3148
(dp3149
g2602
I2
sg2607
Nsg2608
F1.0
sg148
g0
(g117
g2
Ntp3150
Rp3151
(dp3152
g48
I0
sg49
Nsg70
g71
(g72
(I0
tp3153
g74
tp3154
Rp3155
(I1
(I3
I3
tp3156
g81
I00
S'\x00\x00\x00\x00\x00\x00\xf0?\x00\x00\x00\x00\x00\x00\x00\x00\x00\x00\x00\x00\x00\x00\x00\x00\x00\x00\x00\x00\x00\x00\x00\x00\x00\x00\x00\x00\x00\x00\xf0?\x00\x00\x00\x00\x00\x00\x00\x00\x00\x00\x00\x00\x00\x00\x00\x00\x00\x00\x00\x00\x00\x00\x00\x00\x00\x00\x00\x00\x00\x00\xf0?'
p3157
tp3158
bsg50
g7
sg51
(dp3159
sbsg2619
I00
sg2620
g2621
sg2622
Nsg2135
g2623
sg139
g2624
sg1159
g2626
sbsg32
Nsg2634
g2635
sg134
I01
sg2636
g2637
sg137
Nsg2638
F4.0
sg130
I00
sg2639
g1870
sg141
g2640
sg2641
(g3118
tp3160
sg144
I0
sg2643
g2644
sg2645
I0
sg2646
I5
sg145
I01
sg147
Nsg2647
g2580
sg2648
I00
sg148
g214
sg2649
I00
sg2650
F2.01
sg42
Nsg2137
Nsg2651
g2652
sg132
Nsg131
F1.0
sg33
Nsg1159
g1875
sbsg145
I00
sg2653
g0
(g2570
g2
Ntp3161
Rp3162
(dp3163
g6
g7
sg8
I01
sg2574
g2575
sg9
g4
sg2576
g2577
sg2578
Nsg10
Nsg41
Nsg17
g18
sg2579
g2580
sg20
I01
sg2581
Nsg23
Nsg55
g71
(g72
(I0
tp3164
g74
tp3165
Rp3166
(I1
(I2
tp3167
g81
I00
S'\x00\x00\x00\x00\x00\x00\x00\x00\x00\x00\x00\x00\x00\x00\xf0?'
p3168
tp3169
bsg56
g71
(g72
(I0
tp3170
g74
tp3171
Rp3172
(I1
(I2
tp3173
g81
I00
S'\x00\x00\x00\x00\x00\x00\x00\x00\x00\x00\x00\x00\x00\x00\x00\x00'
p3174
tp3175
bsg57
Nsg24
Nsg11
Nsg27
I00
sg2594
Nsg28
I00
sg29
(dp3176
sg2596
Nsg31
I00
sg2597
I00
sg2138
Nsg1141
Nsg2598
F0.5
sg2599
g2600
sg2601
Nsg2247
g2248
sg2602
g0
(g2603
g2
Ntp3177
Rp3178
(dp3179
g2602
g2673
sg2607
Nsg2608
Nsg148
g0
(g44
g2
Ntp3180
Rp3181
(dp3182
g48
I1
sg49
Nsg50
g7
sg51
(dp3183
sbsg2619
I00
sg2620
g2621
sg2622
Nsg2135
g2623
sg139
g2624
sg1159
g0
(g1142
g2
Ntp3184
Rp3185
(dp3186
g1146
I00
sg1147
Nsg1148
g71
(g72
(I0
tp3187
g74
tp3188
Rp3189
(I1
(I0
I2
tp3190
g81
I00
g2685
tp3191
bsg1155
I00
sg1156
F0.1111111111111111
sg1157
I1
sg1158
I00
sbsbsg32
Nsg2634
g2635
sg134
I01
sg2636
g2637
sg137
Nsg2638
F0.0
sg130
I01
sg2639
g71
(g72
(I0
tp3192
g74
tp3193
Rp3194
(I1
(I2
I2
tp3195
g81
I00
S'\x00\x00\x00\x00\x00\x00\x00\x00\x00\x00\x00\x00\x00\x00\x00\x00\x00\x00\x00\x00\x00\x00\x00\x00\x00\x00\x00\x00\x00\x00\xf0?'
p3196
tp3197
bsg141
g2693
sg2641
g2694
sg144
I0
sg2643
g2644
sg2645
I0
sg2646
I5
sg145
I01
sg147
F1.0
sg2647
g2580
sg2648
I00
sg148
g214
sg2649
I00
sg42
Nsg2137
Nsg2651
g2695
sg132
g783
sg131
F0.5
sg33
Nsg1159
g0
(g1142
g2
Ntp3198
Rp3199
(dp3200
g1146
I00
sg1147
Nsg1148
g3194
sg1155
I00
sg1156
F0.1111111111111111
sg1157
I180
sg1158
I00
sbsbsg147
Nsg32
Nsg2699
g0
(g2570
g2
Ntp3201
Rp3202
(dp3203
g6
g7
sg8
I01
sg2574
g2575
sg9
g4
sg2576
g2577
sg2578
Nsg10
Nsg41
Nsg17
g18
sg2579
g2580
sg20
I01
sg2581
Nsg23
Nsg55
g71
(g72
(I0
tp3204
g74
tp3205
Rp3206
(I1
(I1
tp3207
g81
I00
S'\x00\x00\x00\x00\x00\x00\xf0?'
p3208
tp3209
bsg56
g71
(g72
(I0
tp3210
g74
tp3211
Rp3212
(I1
(I1
tp3213
g81
I00
S'\x9a\x99\x99\x99\x99\x99\xe9?'
p3214
tp3215
bsg57
Nsg24
Nsg11
Nsg27
I00
sg2594
Nsg28
I00
sg29
(dp3216
sg2596
Nsg31
I00
sg2597
I00
sg2138
Nsg1141
g1929
sg2598
F0.5
sg2599
g2600
sg2601
Nsg2247
g2248
sg2602
g0
(g2603
g2
Ntp3217
Rp3218
(dp3219
g2602
I3
sg2607
Nsg2608
F1.0
sg148
g0
(g117
g2
Ntp3220
Rp3221
(dp3222
g48
I0
sg49
Nsg70
g71
(g72
(I0
tp3223
g74
tp3224
Rp3225
(I1
(I3
I3
tp3226
g81
I00
S'\x00\x00\x00\x00\x00\x00\xf0?\x00\x00\x00\x00\x00\x00\x00\x00\x00\x00\x00\x00\x00\x00\x00\x00\x00\x00\x00\x00\x00\x00\x00\x00\x00\x00\x00\x00\x00\x00\xf0\xbf\x00\x00\x00\x00\x00\x00\x00\x00\x00\x00\x00\x00\x00\x00\x00\x00\x00\x00\x00\x00\x00\x00\x00\x00\x00\x00\x00\x00\x00\x00\xf0?'
p3227
tp3228
bsg50
g7
sg51
(dp3229
sbsg2619
I00
sg2620
g2621
sg2622
Nsg2135
g2623
sg139
g2624
sg1159
g2626
sbsg32
Nsg2634
g2635
sg134
I01
sg2636
g2637
sg137
Nsg2638
F4.0
sg130
I00
sg2639
g1936
sg141
g2729
sg2641
(g3118
tp3230
sg144
I0
sg2643
g2644
sg2645
I0
sg2646
I5
sg145
I01
sg147
Nsg2647
g2580
sg2648
I00
sg148
g214
sg2649
I00
sg2650
F2.01
sg42
Nsg2137
Nsg2651
g2731
sg132
Nsg131
F1.0
sg33
Nsg1159
g1941
sbsg148
Nsg2732
g2475
sg2733
g2734
sg42
Nsg2247
g2248
sg33
Nsbag0
(g2523
g2
Ntp3231
Rp3232
(dp3233
g6
g7
sg39
F0.5
sg9
g4
sg2527
I01
sg8
I01
sg10
Nsg144
I0
sg41
Nsg2528
F4.0
sg2529
g2248
sg2530
I00
sg2230
F4.0
sg17
g18
sg2531
g2532
sg2483
g0
(g2214
g2
Ntp3234
Rp3235
(dp3236
g6
g7
sg8
I01
sg9
g4
sg10
Nsg2218
g0
(g2219
g2
Ntp3237
Rp3238
(dp3239
g2223
g2539
sg2226
Nsg2227
g2228
sg2229
g2228
sg2230
g2475
sg2232
I400
sg2233
g2228
sbsg41
Nsg17
g18
sg2234
Nsg20
I01
sg23
Nsg55
I0
sg56
g2380
(g81
S'\x00\x00\x00\x00\x00\x00\xf0?'
p3240
tp3241
Rp3242
sg24
Nsg11
Nsg27
I00
sg28
I00
sg29
(dp3243
sg2236
Nsg31
I00
sg2138
Nsg132
Nsg2137
Nsg2237
Nsg32
Nsg137
Nsg130
I00
sg2238
g2544
sg2240
V1.0
p3244
sg2242
Nsg57
Nsg144
I0
sg2243
Nsg145
I01
sg147
Nsg2244
F1.2
sg148
g210
sg2245
Nsg2246
I00
sg42
Nsg2247
g2248
sg2249
g2546
sg33
Nsbsg20
I01
sg23
Nsg2547
I00
sg24
Nsg11
Nsg2548
I01
sg27
I00
sg28
I00
sg29
(dp3245
sg2550
(I2
I3
tp3246
sg31
I00
sg2552
F2.01
sg2138
g2192
sg2553
I01
sg132
Nsg2137
Nsg2554
g3235
sg2555
g0
(g2214
g2
Ntp3247
Rp3248
(dp3249
g6
g7
sg8
I01
sg9
g4
sg10
Nsg2218
g0
(g2219
g2
Ntp3250
Rp3251
(dp3252
g2223
g2562
sg2226
Nsg2227
g2228
sg2229
g2228
sg2230
g2475
sg2232
I400
sg2233
g2228
sbsg41
Nsg17
g18
sg2234
Nsg20
I01
sg23
Nsg55
I1
sg56
I0
sg24
Nsg11
Nsg27
I00
sg28
I00
sg29
(dp3253
sg2236
Nsg31
I00
sg2138
Nsg132
Nsg2137
Nsg2237
Nsg32
Nsg137
Nsg130
I01
sg2238
g2564
sg2240
V1.0
p3254
sg2242
Nsg57
Nsg144
I0
sg2243
Nsg145
I01
sg147
Nsg2244
F1.2
sg148
g1920
sg2245
Nsg2246
I00
sg42
Nsg2247
g2248
sg2249
g2566
sg33
Nsbsg137
Nsg2567
g3242
sg130
I00
sg57
Nsg2568
F4.0
sg2569
g0
(g2570
g2
Ntp3255
Rp3256
(dp3257
g6
g7
sg8
I01
sg2574
g2575
sg9
g4
sg2576
g2577
sg2578
Nsg10
Nsg41
Nsg17
g18
sg2579
g2580
sg20
I01
sg2581
Nsg23
Nsg55
g71
(g72
(I0
tp3258
g74
tp3259
Rp3260
(I1
(I1
tp3261
g81
I00
S'\x00\x00\x00\x00\x00\x00\x00\x00'
p3262
tp3263
bsg56
g71
(g72
(I0
tp3264
g74
tp3265
Rp3266
(I1
(I1
tp3267
g81
I00
S'\x00\x00\x00\x00\x00\x00\xf0?'
p3268
tp3269
bsg57
Nsg24
Nsg11
Nsg27
I00
sg2594
Nsg28
I00
sg29
(dp3270
sg2596
Nsg31
I00
sg2597
I00
sg2138
Nsg1141
g2080
sg2598
F0.5
sg2599
g2600
sg2601
Nsg2247
g2248
sg2602
g0
(g2603
g2
Ntp3271
Rp3272
(dp3273
g2602
I2
sg2607
Nsg2608
F1.0
sg148
g0
(g117
g2
Ntp3274
Rp3275
(dp3276
g48
I0
sg49
Nsg70
g71
(g72
(I0
tp3277
g74
tp3278
Rp3279
(I1
(I3
I3
tp3280
g81
I00
S'\x00\x00\x00\x00\x00\x00\xf0?\x00\x00\x00\x00\x00\x00\x00\x00\x00\x00\x00\x00\x00\x00\x00\x00\x00\x00\x00\x00\x00\x00\x00\x00\x00\x00\x00\x00\x00\x00\xf0?\x00\x00\x00\x00\x00\x00\x00\x00\x00\x00\x00\x00\x00\x00\x00\x00\x00\x00\x00\x00\x00\x00\x00\x00\x00\x00\x00\x00\x00\x00\xf0?'
p3281
tp3282
bsg50
g7
sg51
(dp3283
sbsg2619
I00
sg2620
g2621
sg2622
Nsg2135
g2623
sg139
g2624
sg1159
g2626
sbsg32
Nsg2634
g2635
sg134
I01
sg2636
g2637
sg137
Nsg2638
F4.0
sg130
I00
sg2639
g2087
sg141
g2640
sg2641
(g3242
tp3284
sg144
I0
sg2643
g2644
sg2645
I0
sg2646
I5
sg145
I01
sg147
Nsg2647
g2580
sg2648
I00
sg148
g214
sg2649
I00
sg2650
F2.01
sg42
Nsg2137
Nsg2651
g2652
sg132
Nsg131
F1.0
sg33
Nsg1159
g2092
sbsg145
I00
sg2653
g0
(g2570
g2
Ntp3285
Rp3286
(dp3287
g6
g7
sg8
I01
sg2574
g2575
sg9
g4
sg2576
g2577
sg2578
Nsg10
Nsg41
Nsg17
g18
sg2579
g2580
sg20
I01
sg2581
Nsg23
Nsg55
g71
(g72
(I0
tp3288
g74
tp3289
Rp3290
(I1
(I2
tp3291
g81
I00
S'\x00\x00\x00\x00\x00\x00\x00\x00\x00\x00\x00\x00\x00\x00\xf0?'
p3292
tp3293
bsg56
g71
(g72
(I0
tp3294
g74
tp3295
Rp3296
(I1
(I2
tp3297
g81
I00
S'\x00\x00\x00\x00\x00\x00\x00\x00\x00\x00\x00\x00\x00\x00\x00\x00'
p3298
tp3299
bsg57
Nsg24
Nsg11
Nsg27
I00
sg2594
Nsg28
I00
sg29
(dp3300
sg2596
Nsg31
I00
sg2597
I00
sg2138
Nsg1141
Nsg2598
F0.5
sg2599
g2600
sg2601
Nsg2247
g2248
sg2602
g0
(g2603
g2
Ntp3301
Rp3302
(dp3303
g2602
g2673
sg2607
Nsg2608
Nsg148
g0
(g44
g2
Ntp3304
Rp3305
(dp3306
g48
I1
sg49
Nsg50
g7
sg51
(dp3307
sbsg2619
I00
sg2620
g2621
sg2622
Nsg2135
g2623
sg139
g2624
sg1159
g0
(g1142
g2
Ntp3308
Rp3309
(dp3310
g1146
I00
sg1147
Nsg1148
g71
(g72
(I0
tp3311
g74
tp3312
Rp3313
(I1
(I0
I2
tp3314
g81
I00
g2685
tp3315
bsg1155
I00
sg1156
F0.1111111111111111
sg1157
I1
sg1158
I00
sbsbsg32
Nsg2634
g2635
sg134
I01
sg2636
g2637
sg137
Nsg2638
F0.0
sg130
I01
sg2639
g71
(g72
(I0
tp3316
g74
tp3317
Rp3318
(I1
(I2
I2
tp3319
g81
I00
S'\x00\x00\x00\x00\x00\x00\x00\x00\x00\x00\x00\x00\x00\x00\x00\x00\x00\x00\x00\x00\x00\x00\x00\x00\x00\x00\x00\x00\x00\x00\xf0?'
p3320
tp3321
bsg141
g2693
sg2641
g2694
sg144
I0
sg2643
g2644
sg2645
I0
sg2646
I5
sg145
I01
sg147
F1.0
sg2647
g2580
sg2648
I00
sg148
g214
sg2649
I00
sg42
Nsg2137
Nsg2651
g2695
sg132
g783
sg131
F0.5
sg33
Nsg1159
g0
(g1142
g2
Ntp3322
Rp3323
(dp3324
g1146
I00
sg1147
Nsg1148
g3318
sg1155
I00
sg1156
F0.1111111111111111
sg1157
I180
sg1158
I00
sbsbsg147
Nsg32
Nsg2699
g0
(g2570
g2
Ntp3325
Rp3326
(dp3327
g6
g7
sg8
I01
sg2574
g2575
sg9
g4
sg2576
g2577
sg2578
Nsg10
Nsg41
Nsg17
g18
sg2579
g2580
sg20
I01
sg2581
Nsg23
Nsg55
g71
(g72
(I0
tp3328
g74
tp3329
Rp3330
(I1
(I1
tp3331
g81
I00
S'\x00\x00\x00\x00\x00\x00\xf0?'
p3332
tp3333
bsg56
g71
(g72
(I0
tp3334
g74
tp3335
Rp3336
(I1
(I1
tp3337
g81
I00
S'\x00\x00\x00\x00\x00\x00\xf0?'
p3338
tp3339
bsg57
Nsg24
Nsg11
Nsg27
I00
sg2594
Nsg28
I00
sg29
(dp3340
sg2596
Nsg31
I00
sg2597
I00
sg2138
Nsg1141
g1957
sg2598
F0.5
sg2599
g2600
sg2601
Nsg2247
g2248
sg2602
g0
(g2603
g2
Ntp3341
Rp3342
(dp3343
g2602
I3
sg2607
Nsg2608
F1.0
sg148
g0
(g117
g2
Ntp3344
Rp3345
(dp3346
g48
I0
sg49
Nsg70
g71
(g72
(I0
tp3347
g74
tp3348
Rp3349
(I1
(I3
I3
tp3350
g81
I00
S'\x00\x00\x00\x00\x00\x00\xf0?\x00\x00\x00\x00\x00\x00\x00\x00\x00\x00\x00\x00\x00\x00\x00\x00\x00\x00\x00\x00\x00\x00\x00\x00\x00\x00\x00\x00\x00\x00\xf0\xbf\x00\x00\x00\x00\x00\x00\x00\x00\x00\x00\x00\x00\x00\x00\x00\x00\x00\x00\x00\x00\x00\x00\x00\x00\x00\x00\x00\x00\x00\x00\xf0?'
p3351
tp3352
bsg50
g7
sg51
(dp3353
sbsg2619
I00
sg2620
g2621
sg2622
Nsg2135
g2623
sg139
g2624
sg1159
g2626
sbsg32
Nsg2634
g2635
sg134
I01
sg2636
g2637
sg137
Nsg2638
F4.0
sg130
I00
sg2639
g1964
sg141
g2729
sg2641
(g3242
tp3354
sg144
I0
sg2643
g2644
sg2645
I0
sg2646
I5
sg145
I01
sg147
Nsg2647
g2580
sg2648
I00
sg148
g214
sg2649
I00
sg2650
F2.01
sg42
Nsg2137
Nsg2651
g2731
sg132
Nsg131
F1.0
sg33
Nsg1159
g1969
sbsg148
Nsg2732
g2475
sg2733
g2734
sg42
Nsg2247
g2248
sg33
NsbasS'isDefault_majloc'
p3355
I01
sg2145
g0
(g2146
g2
Ntp3356
Rp3357
sg137
Nsg130
I00
sS'_autolabelpos'
p3358
I01
sg57
Nsg144
I0
sS'_lastNumMajorTicks'
p3359
I6
sS'converter'
p3360
Nsg145
I00
sg147
NsS'offset_text_position'
p3361
Vbottom
p3362
sg148
NsS'label_position'
p3363
Vbottom
p3364
sg2650
F2.5
sg42
Nsg2137
Nsg2646
I15
sS'minorTicks'
p3365
(lp3366
g0
(g2523
g2
Ntp3367
Rp3368
(dp3369
g6
g7
sg39
F0.5
sg9
g4
sg2527
I01
sg8
I01
sg10
Nsg144
I0
sg41
Nsg2528
F4.0
sg2529
g2248
sg2530
I00
sg2230
F2.0
sg17
g18
sg2531
g2532
sg2483
g0
(g2214
g2
Ntp3370
Rp3371
(dp3372
g6
g7
sg8
I01
sg9
g4
sg10
Nsg2218
g0
(g2219
g2
Ntp3373
Rp3374
(dp3375
g2223
(lp3376
g2225
asg2226
Nsg2227
g2228
sg2229
g2228
sg2230
g2475
sg2232
I400
sg2233
g2228
sbsg41
Nsg17
g18
sg2234
Nsg20
I01
sg23
Nsg55
I0
sg56
I0
sg24
Nsg11
Nsg27
I00
sg28
I00
sg29
(dp3377
sg2236
Nsg31
I00
sg2138
Nsg132
Nsg2137
Nsg2237
Nsg32
Nsg137
Nsg130
I01
sg2238
g2544
sg2240
V
p3378
sg2242
Nsg57
Nsg144
I0
sg2243
Nsg145
I01
sg147
Nsg2244
F1.2
sg148
g1854
sg2245
Nsg2246
I00
sg42
Nsg2247
g2248
sg2249
g2546
sg33
Nsbsg20
I01
sg23
Nsg2547
I00
sg24
Nsg11
Nsg2548
I01
sg27
I00
sg28
I00
sg29
(dp3379
sg2550
(I2
I3
tp3380
sg31
I00
sg2552
I2
sg2138
g2192
sg2553
I01
sg132
g923
sg2137
Nsg2554
g3371
sg2555
g0
(g2214
g2
Ntp3381
Rp3382
(dp3383
g6
g7
sg8
I01
sg9
g4
sg10
Nsg2218
g0
(g2219
g2
Ntp3384
Rp3385
(dp3386
g2223
(lp3387
g2225
asg2226
Nsg2227
g2228
sg2229
g2228
sg2230
g2475
sg2232
I400
sg2233
g2228
sbsg41
Nsg17
g18
sg2234
Nsg20
I01
sg23
Nsg55
I1
sg56
I0
sg24
Nsg11
Nsg27
I00
sg28
I00
sg29
(dp3388
sg2236
Nsg31
I00
sg2138
Nsg132
Nsg2137
Nsg2237
Nsg32
Nsg137
Nsg130
I01
sg2238
g2564
sg2240
V
p3389
sg2242
Nsg57
Nsg144
I0
sg2243
Nsg145
I01
sg147
Nsg2244
F1.2
sg148
g1995
sg2245
Nsg2246
I00
sg42
Nsg2247
g2248
sg2249
g2566
sg33
Nsbsg137
Nsg2567
I0
sg130
I01
sg57
Nsg2568
F4.0
sg2569
g0
(g2570
g2
Ntp3390
Rp3391
(dp3392
g6
g7
sg8
I01
sg2574
g2575
sg9
g4
sg2576
g2577
sg2578
Nsg10
Nsg41
Nsg17
g18
sg2579
g2580
sg20
I01
sg2581
Nsg23
Nsg55
Nsg56
Nsg57
Nsg24
Nsg11
Nsg27
I00
sg2594
Nsg28
I00
sg29
(dp3393
sg2596
Nsg31
I00
sg2597
I00
sg2138
Nsg1141
Nsg2598
F0.5
sg2599
g2600
sg2601
Nsg2247
g2248
sg2602
g0
(g2603
g2
Ntp3394
Rp3395
(dp3396
g2602
I2
sg2607
Nsg2608
F1.0
sg148
g0
(g117
g2
Ntp3397
Rp3398
(dp3399
g48
I2
sg49
Nsg70
g71
(g72
(I0
tp3400
g74
tp3401
Rp3402
(I1
(I3
I3
tp3403
g81
I00
S'\x00\x00\x00\x00\x00\x00\xf0?\x00\x00\x00\x00\x00\x00\x00\x00\x00\x00\x00\x00\x00\x00\x00\x00\x00\x00\x00\x00\x00\x00\x00\x00\x00\x00\x00\x00\x00\x00\xf0?\x00\x00\x00\x00\x00\x00\x00\x00\x00\x00\x00\x00\x00\x00\x00\x00\x00\x00\x00\x00\x00\x00\x00\x00\x00\x00\x00\x00\x00\x00\xf0?'
p3404
tp3405
bsg50
g7
sg51
(dp3406
sbsg2619
I00
sg2620
g2621
sg2622
Nsg2135
g2623
sg139
g2624
sg1159
g2626
sbsg32
Nsg2634
g2635
sg134
I01
sg2636
g2637
sg137
Nsg2638
F2.0
sg130
I01
sg2639
Nsg141
g2640
sg2641
(I0
tp3407
sg144
I0
sg2643
g2644
sg2645
I0
sg2646
I5
sg145
I01
sg147
Nsg2647
g2580
sg2648
I01
sg148
g214
sg2649
I01
sg2650
I2
sg42
Nsg2137
Nsg2651
g2652
sg132
Nsg131
F1.0
sg33
Nsg1159
Nsbsg145
I00
sg2653
g0
(g2570
g2
Ntp3408
Rp3409
(dp3410
g6
g7
sg8
I01
sg2574
g2575
sg9
g4
sg2576
g2577
sg2578
Nsg10
Nsg41
Nsg17
g18
sg2579
g2580
sg20
I01
sg2581
Nsg23
Nsg55
g71
(g72
(I0
tp3411
g74
tp3412
Rp3413
(I1
(I2
tp3414
g81
I00
S'\x00\x00\x00\x00\x00\x00\x00\x00\x00\x00\x00\x00\x00\x00\xf0?'
p3415
tp3416
bsg56
g71
(g72
(I0
tp3417
g74
tp3418
Rp3419
(I1
(I2
tp3420
g81
I00
S'\x00\x00\x00\x00\x00\x00\x00\x00\x00\x00\x00\x00\x00\x00\x00\x00'
p3421
tp3422
bsg57
Nsg24
Nsg11
Nsg27
I00
sg2594
Nsg28
I00
sg29
(dp3423
sg2596
Nsg31
I00
sg2597
I00
sg2138
Nsg1141
Nsg2598
F0.5
sg2599
g2600
sg2601
Nsg2247
g2248
sg2602
g0
(g2603
g2
Ntp3424
Rp3425
(dp3426
g2602
g2673
sg2607
Nsg2608
Nsg148
g0
(g44
g2
Ntp3427
Rp3428
(dp3429
g48
I1
sg49
Nsg50
g7
sg51
(dp3430
sbsg2619
I00
sg2620
g2621
sg2622
Nsg2135
g2623
sg139
g2624
sg1159
g0
(g1142
g2
Ntp3431
Rp3432
(dp3433
g1146
I00
sg1147
Nsg1148
g71
(g72
(I0
tp3434
g74
tp3435
Rp3436
(I1
(I0
I2
tp3437
g81
I00
g2685
tp3438
bsg1155
I00
sg1156
F0.1111111111111111
sg1157
I1
sg1158
I00
sbsbsg32
Nsg2634
g2635
sg134
I01
sg2636
g2637
sg137
Nsg2638
F0.0
sg130
I01
sg2639
g71
(g72
(I0
tp3439
g74
tp3440
Rp3441
(I1
(I2
I2
tp3442
g81
I00
S'\x00\x00\x00\x00\x00\x00\x00\x00\x00\x00\x00\x00\x00\x00\x00\x00\x00\x00\x00\x00\x00\x00\x00\x00\x00\x00\x00\x00\x00\x00\xf0?'
p3443
tp3444
bsg141
g2693
sg2641
g2694
sg144
I0
sg2643
g2644
sg2645
I0
sg2646
I5
sg145
I01
sg147
F1.0
sg2647
g2580
sg2648
I00
sg148
g214
sg2649
I00
sg42
Nsg2137
Nsg2651
g2695
sg132
g1063
sg131
F0.5
sg33
Nsg1159
g0
(g1142
g2
Ntp3445
Rp3446
(dp3447
g1146
I00
sg1147
Nsg1148
g3441
sg1155
I00
sg1156
F0.1111111111111111
sg1157
I180
sg1158
I00
sbsbsg147
Nsg32
Nsg2699
g0
(g2570
g2
Ntp3448
Rp3449
(dp3450
g6
g7
sg8
I01
sg2574
g2575
sg9
g4
sg2576
g2577
sg2578
Nsg10
Nsg41
Nsg17
g18
sg2579
g2580
sg20
I01
sg2581
Nsg23
Nsg55
Nsg56
Nsg57
Nsg24
Nsg11
Nsg27
I00
sg2594
Nsg28
I00
sg29
(dp3451
sg2596
Nsg31
I00
sg2597
I00
sg2138
Nsg1141
Nsg2598
F0.5
sg2599
g2600
sg2601
Nsg2247
g2248
sg2602
g0
(g2603
g2
Ntp3452
Rp3453
(dp3454
g2602
I3
sg2607
Nsg2608
F1.0
sg148
g0
(g117
g2
Ntp3455
Rp3456
(dp3457
g48
I2
sg49
Nsg70
g71
(g72
(I0
tp3458
g74
tp3459
Rp3460
(I1
(I3
I3
tp3461
g81
I00
S'\x00\x00\x00\x00\x00\x00\xf0?\x00\x00\x00\x00\x00\x00\x00\x00\x00\x00\x00\x00\x00\x00\x00\x00\x00\x00\x00\x00\x00\x00\x00\x00\x00\x00\x00\x00\x00\x00\xf0\xbf\x00\x00\x00\x00\x00\x00\x00\x00\x00\x00\x00\x00\x00\x00\x00\x00\x00\x00\x00\x00\x00\x00\x00\x00\x00\x00\x00\x00\x00\x00\xf0?'
p3462
tp3463
bsg50
g7
sg51
(dp3464
sbsg2619
I00
sg2620
g2621
sg2622
Nsg2135
g2623
sg139
g2624
sg1159
g2626
sbsg32
Nsg2634
g2635
sg134
I01
sg2636
g2637
sg137
Nsg2638
F2.0
sg130
I01
sg2639
Nsg141
g2729
sg2641
(I0
tp3465
sg144
I0
sg2643
g2644
sg2645
I0
sg2646
I5
sg145
I01
sg147
Nsg2647
g2580
sg2648
I01
sg148
g214
sg2649
I01
sg2650
I2
sg42
Nsg2137
Nsg2651
g2731
sg132
Nsg131
F1.0
sg33
Nsg1159
Nsbsg148
Nsg2732
g2475
sg2733
g2734
sg42
Nsg2247
g2248
sg33
Nsbag0
(g2523
g2
Ntp3466
Rp3467
(dp3468
g6
g7
sg39
F0.5
sg9
g4
sg2527
I01
sg8
I01
sg10
Nsg144
I0
sg41
Nsg2528
F4.0
sg2529
g2248
sg2530
I00
sg2230
F2.0
sg17
g18
sg2531
g2532
sg2483
g0
(g2214
g2
Ntp3469
Rp3470
(dp3471
g6
g7
sg8
I01
sg9
g4
sg10
Nsg2218
g0
(g2219
g2
Ntp3472
Rp3473
(dp3474
g2223
(lp3475
g2225
asg2226
Nsg2227
g2228
sg2229
g2228
sg2230
g2475
sg2232
I400
sg2233
g2228
sbsg41
Nsg17
g18
sg2234
Nsg20
I01
sg23
Nsg55
I0
sg56
I0
sg24
Nsg11
Nsg27
I00
sg28
I00
sg29
(dp3476
sg2236
Nsg31
I00
sg2138
Nsg132
Nsg2137
Nsg2237
Nsg32
Nsg137
Nsg130
I01
sg2238
g2544
sg2240
V
p3477
sg2242
Nsg57
Nsg144
I0
sg2243
Nsg145
I01
sg147
Nsg2244
F1.2
sg148
g2118
sg2245
Nsg2246
I00
sg42
Nsg2247
g2248
sg2249
g2546
sg33
Nsbsg20
I01
sg23
Nsg2547
I00
sg24
Nsg11
Nsg2548
I01
sg27
I00
sg28
I00
sg29
(dp3478
sg2550
(I2
I3
tp3479
sg31
I00
sg2552
I2
sg2138
g2192
sg2553
I01
sg132
g1677
sg2137
Nsg2554
g3470
sg2555
g0
(g2214
g2
Ntp3480
Rp3481
(dp3482
g6
g7
sg8
I01
sg9
g4
sg10
Nsg2218
g0
(g2219
g2
Ntp3483
Rp3484
(dp3485
g2223
(lp3486
g2225
asg2226
Nsg2227
g2228
sg2229
g2228
sg2230
g2475
sg2232
I400
sg2233
g2228
sbsg41
Nsg17
g18
sg2234
Nsg20
I01
sg23
Nsg55
I1
sg56
I0
sg24
Nsg11
Nsg27
I00
sg28
I00
sg29
(dp3487
sg2236
Nsg31
I00
sg2138
Nsg132
Nsg2137
Nsg2237
Nsg32
Nsg137
Nsg130
I01
sg2238
g2564
sg2240
V
p3488
sg2242
Nsg57
Nsg144
I0
sg2243
Nsg145
I01
sg147
Nsg2244
F1.2
sg148
g1948
sg2245
Nsg2246
I00
sg42
Nsg2247
g2248
sg2249
g2566
sg33
Nsbsg137
Nsg2567
I0
sg130
I01
sg57
Nsg2568
F4.0
sg2569
g0
(g2570
g2
Ntp3489
Rp3490
(dp3491
g6
g7
sg8
I01
sg2574
g2575
sg9
g4
sg2576
g2577
sg2578
Nsg10
Nsg41
Nsg17
g18
sg2579
g2580
sg20
I01
sg2581
Nsg23
Nsg55
Nsg56
Nsg57
Nsg24
Nsg11
Nsg27
I00
sg2594
Nsg28
I00
sg29
(dp3492
sg2596
Nsg31
I00
sg2597
I00
sg2138
Nsg1141
Nsg2598
F0.5
sg2599
g2600
sg2601
Nsg2247
g2248
sg2602
g0
(g2603
g2
Ntp3493
Rp3494
(dp3495
g2602
I2
sg2607
Nsg2608
F1.0
sg148
g0
(g117
g2
Ntp3496
Rp3497
(dp3498
g48
I2
sg49
Nsg70
g71
(g72
(I0
tp3499
g74
tp3500
Rp3501
(I1
(I3
I3
tp3502
g81
I00
S'\x00\x00\x00\x00\x00\x00\xf0?\x00\x00\x00\x00\x00\x00\x00\x00\x00\x00\x00\x00\x00\x00\x00\x00\x00\x00\x00\x00\x00\x00\x00\x00\x00\x00\x00\x00\x00\x00\xf0?\x00\x00\x00\x00\x00\x00\x00\x00\x00\x00\x00\x00\x00\x00\x00\x00\x00\x00\x00\x00\x00\x00\x00\x00\x00\x00\x00\x00\x00\x00\xf0?'
p3503
tp3504
bsg50
g7
sg51
(dp3505
sbsg2619
I00
sg2620
g2621
sg2622
Nsg2135
g2623
sg139
g2624
sg1159
g2626
sbsg32
Nsg2634
g2635
sg134
I01
sg2636
g2637
sg137
Nsg2638
F2.0
sg130
I01
sg2639
Nsg141
g2640
sg2641
(I0
tp3506
sg144
I0
sg2643
g2644
sg2645
I0
sg2646
I5
sg145
I01
sg147
Nsg2647
g2580
sg2648
I01
sg148
g214
sg2649
I01
sg2650
I2
sg42
Nsg2137
Nsg2651
g2652
sg132
Nsg131
F1.0
sg33
Nsg1159
Nsbsg145
I00
sg2653
g0
(g2570
g2
Ntp3507
Rp3508
(dp3509
g6
g7
sg8
I01
sg2574
g2575
sg9
g4
sg2576
g2577
sg2578
Nsg10
Nsg41
Nsg17
g18
sg2579
g2580
sg20
I01
sg2581
Nsg23
Nsg55
g71
(g72
(I0
tp3510
g74
tp3511
Rp3512
(I1
(I2
tp3513
g81
I00
S'\x00\x00\x00\x00\x00\x00\x00\x00\x00\x00\x00\x00\x00\x00\xf0?'
p3514
tp3515
bsg56
g71
(g72
(I0
tp3516
g74
tp3517
Rp3518
(I1
(I2
tp3519
g81
I00
S'\x00\x00\x00\x00\x00\x00\x00\x00\x00\x00\x00\x00\x00\x00\x00\x00'
p3520
tp3521
bsg57
Nsg24
Nsg11
Nsg27
I00
sg2594
Nsg28
I00
sg29
(dp3522
sg2596
Nsg31
I00
sg2597
I00
sg2138
Nsg1141
Nsg2598
F0.5
sg2599
g2600
sg2601
Nsg2247
g2248
sg2602
g0
(g2603
g2
Ntp3523
Rp3524
(dp3525
g2602
g2673
sg2607
Nsg2608
Nsg148
g0
(g44
g2
Ntp3526
Rp3527
(dp3528
g48
I1
sg49
Nsg50
g7
sg51
(dp3529
sbsg2619
I00
sg2620
g2621
sg2622
Nsg2135
g2623
sg139
g2624
sg1159
g0
(g1142
g2
Ntp3530
Rp3531
(dp3532
g1146
I00
sg1147
Nsg1148
g71
(g72
(I0
tp3533
g74
tp3534
Rp3535
(I1
(I0
I2
tp3536
g81
I00
g2685
tp3537
bsg1155
I00
sg1156
F0.1111111111111111
sg1157
I1
sg1158
I00
sbsbsg32
Nsg2634
g2635
sg134
I01
sg2636
g2637
sg137
Nsg2638
F0.0
sg130
I01
sg2639
g71
(g72
(I0
tp3538
g74
tp3539
Rp3540
(I1
(I2
I2
tp3541
g81
I00
S'\x00\x00\x00\x00\x00\x00\x00\x00\x00\x00\x00\x00\x00\x00\x00\x00\x00\x00\x00\x00\x00\x00\x00\x00\x00\x00\x00\x00\x00\x00\xf0?'
p3542
tp3543
bsg141
g2693
sg2641
g2694
sg144
I0
sg2643
g2644
sg2645
I0
sg2646
I5
sg145
I01
sg147
F1.0
sg2647
g2580
sg2648
I00
sg148
g214
sg2649
I00
sg42
Nsg2137
Nsg2651
g2695
sg132
g540
sg131
F0.5
sg33
Nsg1159
g0
(g1142
g2
Ntp3544
Rp3545
(dp3546
g1146
I00
sg1147
Nsg1148
g3540
sg1155
I00
sg1156
F0.1111111111111111
sg1157
I180
sg1158
I00
sbsbsg147
Nsg32
Nsg2699
g0
(g2570
g2
Ntp3547
Rp3548
(dp3549
g6
g7
sg8
I01
sg2574
g2575
sg9
g4
sg2576
g2577
sg2578
Nsg10
Nsg41
Nsg17
g18
sg2579
g2580
sg20
I01
sg2581
Nsg23
Nsg55
Nsg56
Nsg57
Nsg24
Nsg11
Nsg27
I00
sg2594
Nsg28
I00
sg29
(dp3550
sg2596
Nsg31
I00
sg2597
I00
sg2138
Nsg1141
Nsg2598
F0.5
sg2599
g2600
sg2601
Nsg2247
g2248
sg2602
g0
(g2603
g2
Ntp3551
Rp3552
(dp3553
g2602
I3
sg2607
Nsg2608
F1.0
sg148
g0
(g117
g2
Ntp3554
Rp3555
(dp3556
g48
I2
sg49
Nsg70
g71
(g72
(I0
tp3557
g74
tp3558
Rp3559
(I1
(I3
I3
tp3560
g81
I00
S'\x00\x00\x00\x00\x00\x00\xf0?\x00\x00\x00\x00\x00\x00\x00\x00\x00\x00\x00\x00\x00\x00\x00\x00\x00\x00\x00\x00\x00\x00\x00\x00\x00\x00\x00\x00\x00\x00\xf0\xbf\x00\x00\x00\x00\x00\x00\x00\x00\x00\x00\x00\x00\x00\x00\x00\x00\x00\x00\x00\x00\x00\x00\x00\x00\x00\x00\x00\x00\x00\x00\xf0?'
p3561
tp3562
bsg50
g7
sg51
(dp3563
sbsg2619
I00
sg2620
g2621
sg2622
Nsg2135
g2623
sg139
g2624
sg1159
g2626
sbsg32
Nsg2634
g2635
sg134
I01
sg2636
g2637
sg137
Nsg2638
F2.0
sg130
I01
sg2639
Nsg141
g2729
sg2641
(I0
tp3564
sg144
I0
sg2643
g2644
sg2645
I0
sg2646
I5
sg145
I01
sg147
Nsg2647
g2580
sg2648
I01
sg148
g214
sg2649
I01
sg2650
I2
sg42
Nsg2137
Nsg2651
g2731
sg132
Nsg131
F1.0
sg33
Nsg1159
Nsbsg148
Nsg2732
g2475
sg2733
g2734
sg42
Nsg2247
g2248
sg33
Nsbasg33
NsS'_minor_tick_kw'
p3565
(dp3566
sS'isDefault_minfmt'
p3567
I01
sbsS'_navigate_mode'
p3568
Nsg33
NsS'transAxes'
p3569
g217
sS'_connected'
p3570
(dp3571
sS'fmt_ydata'
p3572
NsS'dataLim'
p3573
g0
(g87
g2
Ntp3574
Rp3575
(dp3576
g48
I1
sg91
g71
(g72
(I0
tp3577
g74
tp3578
Rp3579
(I1
(I2
tp3580
g81
I00
S'H\xaf\xbc\x9a\xf2\xd7z>H\xaf\xbc\x9a\xf2\xd7z>'
p3581
tp3582
bsg51
(dp3583
sg99
g71
(g72
(I0
tp3584
g74
tp3585
Rp3586
(I1
(I2
I2
tp3587
g81
I00
S'\x00\x00\x00\x00\x00\x00\xf0\x7f\x00\x00\x00\x00\x00\x00\xf0\x7f\x00\x00\x00\x00\x00\x00\xf0\xff\x00\x00\x00\x00\x00\x00\xf0\xff'
p3588
tp3589
bsg106
g71
(g72
(I0
tp3590
g74
tp3591
Rp3592
(I1
(I2
I2
tp3593
g81
I00
S'\x00\x00\x00\x00\x00\x00\xf0\x7f\x00\x00\x00\x00\x00\x00\xf0\x7f\x00\x00\x00\x00\x00\x00\xf0\xff\x00\x00\x00\x00\x00\x00\xf0\xff'
p3594
tp3595
bsg113
I01
sg50
g7
sbsS'transData'
p3596
g1129
sg32
NsS'_sharey'
p3597
NsS'_sharex'
p3598
NsS'axesPatch'
p3599
g2303
sS'_ymargin'
p3600
F0.0
sS'_axes_locator'
p3601
NsS'numCols'
p3602
I1
sg147
Nsg2149
I00
sS'yaxis'
p3603
g0
(cmatplotlib.axis
YAxis
p3604
g2
Ntp3605
Rp3606
(dp3607
g6
g7
sg2420
g0
(g2421
g2
Ntp3608
Rp3609
(dp3610
g2425
g0
(g2426
g2
Ntp3611
Rp3612
(dp3613
g2430
I00
sg2431
I9
sg2432
(lp3614
I1
aI2
aI5
aI10
asg2434
Nsg2435
I00
sg2436
I01
sg2437
g3606
sbsg2438
g0
(g2439
g2
Ntp3615
Rp3616
(dp3617
g2443
g2444
sg2445
I0
sg2446
I00
sg2447
V%1.1f
p3618
sg2449
I00
sg2450
I01
sg2451
g71
(g72
(I0
tp3619
g74
tp3620
Rp3621
(I1
(I6
tp3622
g81
I00
S'\x00\x00\x00\x00\x00\x00\x00\x00\x9a\x99\x99\x99\x99\x99\xc9?\x9a\x99\x99\x99\x99\x99\xd9?433333\xe3?\x9a\x99\x99\x99\x99\x99\xe9?\x00\x00\x00\x00\x00\x00\xf0?'
p3623
tp3624
bsg2458
I0
sg2245
I00
sg2459
I01
sg2437
g3606
sbsbsg2460
I01
sg2461
g0
(g2462
g2
Ntp3625
Rp3626
sg9
g4
sg8
I01
sg2465
I00
sg10
Nsg41
Nsg2466
I00
sg17
g18
sg20
I01
sg23
Nsg2467
g0
(g2214
g2
Ntp3627
Rp3628
(dp3629
g6
g7
sg8
I01
sg9
g4
sg10
Nsg2218
g0
(g2219
g2
Ntp3630
Rp3631
(dp3632
g2223
(lp3633
g2225
asg2226
Nsg2227
g2228
sg2229
g2228
sg2230
g2475
sg2232
I400
sg2233
g2228
sbsg41
Nsg17
g18
sg2234
Nsg20
I01
sg23
Nsg55
g2380
(g81
S'UUUUU\x01\x81@'
p3634
tp3635
Rp3636
sg56
I0
sg24
Nsg11
Nsg27
I00
sg28
I00
sg29
(dp3637
sg2236
Nsg31
I00
sg2138
Nsg132
Nsg2137
Nsg2237
Nsg32
Nsg137
Nsg130
I01
sg2238
Vbaseline
p3638
sg2240
V
p3639
sg2242
Nsg57
Nsg144
I0
sg2243
Nsg145
I01
sg147
Nsg2244
F1.2
sg148
g636
sg2245
Nsg2246
I00
sg42
Nsg2247
g2248
sg2249
Vleft
p3640
sg33
Nsbsg24
Nsg11
Nsg2483
g0
(g2214
g2
Ntp3641
Rp3642
(dp3643
g6
g7
sg8
I01
sg9
g4
sg10
Nsg2218
g0
(g2219
g2
Ntp3644
Rp3645
(dp3646
g2223
(lp3647
g2225
asg2226
Nsg2227
g2228
sg2229
g2228
sg2230
g2475
sg2232
I400
sg2233
g2228
sbsg41
Nsg17
g18
sg2234
Nsg20
I01
sg23
Nsg55
F0.5
sg56
g2380
(g81
S'\x00\x00\x00\x00\x00\x90N@'
p3648
tp3649
Rp3650
sg24
Nsg11
Nsg27
I00
sg28
I00
sg29
(dp3651
sg2236
Nsg31
I00
sg2138
Nsg132
Nsg2137
Nsg2237
Vanchor
p3652
sg32
Nsg137
Nsg130
I01
sg2238
Vbottom
p3653
sg2240
V
p3654
sg2242
Nsg57
Nsg144
I0
sg2243
Vvertical
p3655
sg145
I01
sg147
Nsg2244
F1.2
sg148
g480
sg2245
Nsg2246
I00
sg42
Nsg2247
g2248
sg2249
Vcenter
p3656
sg33
Nsbsg27
I00
sg2498
I01
sg28
I00
sg29
(dp3657
sg2500
Nsg31
I00
sg2501
g0
(g2421
g2
Ntp3658
Rp3659
(dp3660
g2425
g0
(g2505
g2
Ntp3661
Rp3662
(dp3663
g2437
g3606
sbsg2438
g0
(g2509
g2
Ntp3664
Rp3665
(dp3666
g2451
(lp3667
sg2437
g3606
sbsbsg2138
g2192
sg2514
(dp3668
g2516
I00
ssg2517
I01
sg132
g313
sg32
Nsg2518
I00
sg2519
I0
sg2520
F5.0
sg2521
(lp3669
g0
(cmatplotlib.axis
YTick
p3670
g2
Ntp3671
Rp3672
(dp3673
g6
g7
sg39
F0.5
sg9
g4
sg2527
I01
sg8
I01
sg10
Nsg144
I0
sg41
Nsg2528
F4.0
sg2529
g2248
sg2530
I00
sg2230
F4.0
sg17
g18
sg2531
g2532
sg2483
g0
(g2214
g2
Ntp3674
Rp3675
(dp3676
g6
g7
sg8
I01
sg9
g4
sg10
Nsg2218
g0
(g2219
g2
Ntp3677
Rp3678
(dp3679
g2223
(lp3680
g2225
asg2226
Nsg2227
g2228
sg2229
g2228
sg2230
g2475
sg2232
I400
sg2233
g2228
sbsg41
Nsg17
g18
sg2234
Nsg20
I01
sg23
Nsg55
g2380
(g81
S'\x00\x00\x00\x00\x00\x00\x00\x00'
p3681
tp3682
Rp3683
sg56
I0
sg24
Nsg11
Nsg27
I00
sg28
I00
sg29
(dp3684
sg2236
Nsg31
I00
sg2138
Nsg132
Nsg2137
Nsg2237
Nsg32
Nsg137
Nsg130
I00
sg2238
Vcenter
p3685
sg2240
V0.0
p3686
sg2242
Nsg57
Nsg144
I0
sg2243
Nsg145
I01
sg147
Nsg2244
F1.2
sg148
g1273
sg2245
Nsg2246
I00
sg42
Nsg2247
g2248
sg2249
Vright
p3687
sg33
Nsbsg20
I01
sg23
Nsg2547
I00
sg24
Nsg11
Nsg2548
I01
sg27
I00
sg28
I00
sg29
(dp3688
sg2550
(I1
I0
tp3689
sg31
I00
sg2552
F2.01
sg2138
g2192
sg2553
I01
sg132
g453
sg2137
Nsg2554
g3675
sg2555
g0
(g2214
g2
Ntp3690
Rp3691
(dp3692
g6
g7
sg8
I01
sg9
g4
sg10
Nsg2218
g0
(g2219
g2
Ntp3693
Rp3694
(dp3695
g2223
(lp3696
g2225
asg2226
Nsg2227
g2228
sg2229
g2228
sg2230
g2475
sg2232
I400
sg2233
g2228
sbsg41
Nsg17
g18
sg2234
Nsg20
I01
sg23
Nsg55
I0
sg56
I1
sg24
Nsg11
Nsg27
I00
sg28
I00
sg29
(dp3697
sg2236
Nsg31
I00
sg2138
Nsg132
Nsg2137
Nsg2237
Nsg32
Nsg137
Nsg130
I01
sg2238
Vcenter
p3698
sg2240
V0.0
p3699
sg2242
Nsg57
Nsg144
I0
sg2243
Nsg145
I01
sg147
Nsg2244
F1.2
sg148
g1316
sg2245
Nsg2246
I00
sg42
Nsg2247
g2248
sg2249
Vleft
p3700
sg33
Nsbsg137
Nsg2567
g3683
sg130
I00
sg57
Nsg2568
F4.0
sg2569
g0
(g2570
g2
Ntp3701
Rp3702
(dp3703
g6
g7
sg8
I01
sg2574
g2575
sg9
g4
sg2576
g2577
sg2578
Nsg10
Nsg41
Nsg17
g18
sg2579
g2580
sg20
I01
sg2581
Nsg23
Nsg55
g71
(g72
(I0
tp3704
g74
tp3705
Rp3706
(I1
(I1
tp3707
g81
I00
S'\x00\x00\x00\x00\x00\x00\x00\x00'
p3708
tp3709
bsg56
g71
(g72
(I0
tp3710
g74
tp3711
Rp3712
(I1
(I1
tp3713
g81
I00
S'\x00\x00\x00\x00\x00\x00\x00\x00'
p3714
tp3715
bsg57
Nsg24
Nsg11
Nsg27
I00
sg2594
Nsg28
I00
sg29
(dp3716
sg2596
Nsg31
I00
sg2597
I00
sg2138
Nsg1141
g1235
sg2598
F0.5
sg2599
g2600
sg2601
Nsg2247
g2248
sg2602
g0
(g2603
g2
Ntp3717
Rp3718
(dp3719
g2602
I1
sg2607
Nsg2608
F1.0
sg148
g0
(g117
g2
Ntp3720
Rp3721
(dp3722
g48
I0
sg49
Nsg70
g71
(g72
(I0
tp3723
g74
tp3724
Rp3725
(I1
(I3
I3
tp3726
g81
I00
S'\x00\x00\x00\x00\x00\x00\xf0?\x00\x00\x00\x00\x00\x00\x00\x00\x00\x00\x00\x00\x00\x00\x00\x00\x00\x00\x00\x00\x00\x00\x00\x00\x00\x00\x00\x00\x00\x00\xf0?\x00\x00\x00\x00\x00\x00\x00\x00\x00\x00\x00\x00\x00\x00\x00\x00\x00\x00\x00\x00\x00\x00\x00\x00\x00\x00\x00\x00\x00\x00\xf0?'
p3727
tp3728
bsg50
g7
sg51
(dp3729
sbsg2619
I00
sg2620
g2621
sg2622
Nsg2135
g2623
sg139
g2624
sg1159
g0
(g1142
g2
Ntp3730
Rp3731
(dp3732
g1146
I00
sg1147
Nsg1148
g71
(g72
(I0
tp3733
g74
tp3734
Rp3735
(I1
(I2
I2
tp3736
g81
I00
S'\x00\x00\x00\x00\x00\x00\x00\x00\x00\x00\x00\x00\x00\x00\x00\x00\x00\x00\x00\x00\x00\x00\xf0?\x00\x00\x00\x00\x00\x00\x00\x00'
p3737
tp3738
bsg1155
I00
sg1156
F0.1111111111111111
sg1157
I1
sg1158
I00
sbsbsg32
Nsg2634
g2635
sg134
I01
sg2636
g2637
sg137
Nsg2638
F4.0
sg130
I00
sg2639
g1242
sg141
VNone
p3739
sg2641
(I0
tp3740
sg144
I0
sg2643
g2644
sg2645
I0
sg2646
I5
sg145
I01
sg147
Nsg2647
g2580
sg2648
I00
sg148
g1133
sg2649
I00
sg2650
F2.01
sg42
Nsg2137
Nsg2651
(g3683
tp3741
sg132
Nsg131
F1.0
sg33
Nsg1159
g1247
sbsg145
I00
sg2653
g0
(g2570
g2
Ntp3742
Rp3743
(dp3744
g6
g7
sg8
I01
sg2574
g2575
sg9
g4
sg2576
g2577
sg2578
Nsg10
Nsg41
Nsg17
g18
sg2579
g2580
sg20
I01
sg2581
Nsg23
Nsg55
g71
(g72
(I0
tp3745
g74
tp3746
Rp3747
(I1
(I2
tp3748
g81
I00
S'\x00\x00\x00\x00\x00\x00\x00\x00\x00\x00\x00\x00\x00\x00\x00\x00'
p3749
tp3750
bsg56
g71
(g72
(I0
tp3751
g74
tp3752
Rp3753
(I1
(I2
tp3754
g81
I00
S'\x00\x00\x00\x00\x00\x00\x00\x00\x00\x00\x00\x00\x00\x00\xf0?'
p3755
tp3756
bsg57
Nsg24
Nsg11
Nsg27
I00
sg2594
Nsg28
I00
sg29
(dp3757
sg2596
Nsg31
I00
sg2597
I00
sg2138
Nsg1141
Nsg2598
F0.5
sg2599
g2600
sg2601
Nsg2247
g2248
sg2602
g0
(g2603
g2
Ntp3758
Rp3759
(dp3760
g2602
g2673
sg2607
Nsg2608
Nsg148
g0
(g44
g2
Ntp3761
Rp3762
(dp3763
g48
I1
sg49
Nsg50
g7
sg51
(dp3764
sbsg2619
I00
sg2620
g2621
sg2622
Nsg2135
g2623
sg139
g2624
sg1159
g0
(g1142
g2
Ntp3765
Rp3766
(dp3767
g1146
I00
sg1147
Nsg1148
g71
(g72
(I0
tp3768
g74
tp3769
Rp3770
(I1
(I0
I2
tp3771
g81
I00
g2685
tp3772
bsg1155
I00
sg1156
F0.1111111111111111
sg1157
I1
sg1158
I00
sbsbsg32
Nsg2634
g2635
sg134
I01
sg2636
g2637
sg137
Nsg2638
F0.0
sg130
I01
sg2639
g71
(g72
(I0
tp3773
g74
tp3774
Rp3775
(I1
(I2
I2
tp3776
g81
I00
S'\x00\x00\x00\x00\x00\x00\x00\x00\x00\x00\x00\x00\x00\x00\x00\x00\x00\x00\x00\x00\x00\x00\xf0?\x00\x00\x00\x00\x00\x00\x00\x00'
p3777
tp3778
bsg141
g2693
sg2641
(I0
I1
tp3779
sg144
I0
sg2643
g2644
sg2645
I0
sg2646
I5
sg145
I01
sg147
F1.0
sg2647
g2580
sg2648
I00
sg148
g1133
sg2649
I00
sg42
Nsg2137
Nsg2651
(I0
I0
tp3780
sg132
g713
sg131
F0.5
sg33
Nsg1159
g0
(g1142
g2
Ntp3781
Rp3782
(dp3783
g1146
I00
sg1147
Nsg1148
g3775
sg1155
I00
sg1156
F0.1111111111111111
sg1157
I180
sg1158
I00
sbsbsg147
Nsg32
Nsg2699
g0
(g2570
g2
Ntp3784
Rp3785
(dp3786
g6
g7
sg8
I01
sg2574
g2575
sg9
g4
sg2576
g2577
sg2578
Nsg10
Nsg41
Nsg17
g18
sg2579
g2580
sg20
I01
sg2581
Nsg23
Nsg55
g71
(g72
(I0
tp3787
g74
tp3788
Rp3789
(I1
(I1
tp3790
g81
I00
S'\x00\x00\x00\x00\x00\x00\x00\x00'
p3791
tp3792
bsg56
g71
(g72
(I0
tp3793
g74
tp3794
Rp3795
(I1
(I1
tp3796
g81
I00
S'\x00\x00\x00\x00\x00\x00\xf0?'
p3797
tp3798
bsg57
Nsg24
Nsg11
Nsg27
I00
sg2594
Nsg28
I00
sg29
(dp3799
sg2596
Nsg31
I00
sg2597
I00
sg2138
Nsg1141
g1254
sg2598
F0.5
sg2599
g2600
sg2601
Nsg2247
g2248
sg2602
g0
(g2603
g2
Ntp3800
Rp3801
(dp3802
g2602
I0
sg2607
Nsg2608
F1.0
sg148
g0
(g117
g2
Ntp3803
Rp3804
(dp3805
g48
I0
sg49
Nsg70
g71
(g72
(I0
tp3806
g74
tp3807
Rp3808
(I1
(I3
I3
tp3809
g81
I00
S'\x00\x00\x00\x00\x00\x00\xf0\xbf\x00\x00\x00\x00\x00\x00\x00\x00\x00\x00\x00\x00\x00\x00\x00\x00\x00\x00\x00\x00\x00\x00\x00\x00\x00\x00\x00\x00\x00\x00\xf0?\x00\x00\x00\x00\x00\x00\x00\x00\x00\x00\x00\x00\x00\x00\x00\x00\x00\x00\x00\x00\x00\x00\x00\x00\x00\x00\x00\x00\x00\x00\xf0?'
p3810
tp3811
bsg50
g7
sg51
(dp3812
sbsg2619
I00
sg2620
g2621
sg2622
Nsg2135
g2623
sg139
g2624
sg1159
g3731
sbsg32
Nsg2634
g2635
sg134
I01
sg2636
g2637
sg137
Nsg2638
F4.0
sg130
I00
sg2639
g1261
sg141
VNone
p3813
sg2641
(I1
tp3814
sg144
I0
sg2643
g2644
sg2645
I0
sg2646
I5
sg145
I01
sg147
Nsg2647
g2580
sg2648
I00
sg148
g1133
sg2649
I00
sg2650
F2.01
sg42
Nsg2137
Nsg2651
(g3683
tp3815
sg132
Nsg131
F1.0
sg33
Nsg1159
g1266
sbsg148
Nsg2732
g2475
sg2733
Vytick
p3816
sg42
Nsg2247
g2248
sg33
Nsbag0
(g3670
g2
Ntp3817
Rp3818
(dp3819
g6
g7
sg39
F0.5
sg9
g4
sg2527
I01
sg8
I01
sg10
Nsg144
I0
sg41
Nsg2528
F4.0
sg2529
g2248
sg2530
I00
sg2230
F4.0
sg17
g18
sg2531
g2532
sg2483
g0
(g2214
g2
Ntp3820
Rp3821
(dp3822
g6
g7
sg8
I01
sg9
g4
sg10
Nsg2218
g0
(g2219
g2
Ntp3823
Rp3824
(dp3825
g2223
g3680
sg2226
Nsg2227
g2228
sg2229
g2228
sg2230
g2475
sg2232
I400
sg2233
g2228
sbsg41
Nsg17
g18
sg2234
Nsg20
I01
sg23
Nsg55
g2380
(g81
S'\x9a\x99\x99\x99\x99\x99\xc9?'
p3826
tp3827
Rp3828
sg56
I0
sg24
Nsg11
Nsg27
I00
sg28
I00
sg29
(dp3829
sg2236
Nsg31
I00
sg2138
Nsg132
Nsg2137
Nsg2237
Nsg32
Nsg137
Nsg130
I00
sg2238
g3685
sg2240
V0.2
p3830
sg2242
Nsg57
Nsg144
I0
sg2243
Nsg145
I01
sg147
Nsg2244
F1.2
sg148
g1273
sg2245
Nsg2246
I00
sg42
Nsg2247
g2248
sg2249
g3687
sg33
Nsbsg20
I01
sg23
Nsg2547
I00
sg24
Nsg11
Nsg2548
I01
sg27
I00
sg28
I00
sg29
(dp3831
sg2550
(I1
I0
tp3832
sg31
I00
sg2552
F2.01
sg2138
g2192
sg2553
I01
sg132
g1607
sg2137
Nsg2554
g3821
sg2555
g0
(g2214
g2
Ntp3833
Rp3834
(dp3835
g6
g7
sg8
I01
sg9
g4
sg10
Nsg2218
g0
(g2219
g2
Ntp3836
Rp3837
(dp3838
g2223
g3696
sg2226
Nsg2227
g2228
sg2229
g2228
sg2230
g2475
sg2232
I400
sg2233
g2228
sbsg41
Nsg17
g18
sg2234
Nsg20
I01
sg23
Nsg55
I0
sg56
I1
sg24
Nsg11
Nsg27
I00
sg28
I00
sg29
(dp3839
sg2236
Nsg31
I00
sg2138
Nsg132
Nsg2137
Nsg2237
Nsg32
Nsg137
Nsg130
I01
sg2238
g3698
sg2240
V0.2
p3840
sg2242
Nsg57
Nsg144
I0
sg2243
Nsg145
I01
sg147
Nsg2244
F1.2
sg148
g1316
sg2245
Nsg2246
I00
sg42
Nsg2247
g2248
sg2249
g3700
sg33
Nsbsg137
Nsg2567
g3828
sg130
I00
sg57
Nsg2568
F4.0
sg2569
g0
(g2570
g2
Ntp3841
Rp3842
(dp3843
g6
g7
sg8
I01
sg2574
g2575
sg9
g4
sg2576
g2577
sg2578
Nsg10
Nsg41
Nsg17
g18
sg2579
g2580
sg20
I01
sg2581
Nsg23
Nsg55
g71
(g72
(I0
tp3844
g74
tp3845
Rp3846
(I1
(I1
tp3847
g81
I00
S'\x9a\x99\x99\x99\x99\x99\xc9?'
p3848
tp3849
bsg56
g71
(g72
(I0
tp3850
g74
tp3851
Rp3852
(I1
(I1
tp3853
g81
I00
S'\x00\x00\x00\x00\x00\x00\x00\x00'
p3854
tp3855
bsg57
Nsg24
Nsg11
Nsg27
I00
sg2594
Nsg28
I00
sg29
(dp3856
sg2596
Nsg31
I00
sg2597
I00
sg2138
Nsg1141
g1139
sg2598
F0.5
sg2599
g2600
sg2601
Nsg2247
g2248
sg2602
g0
(g2603
g2
Ntp3857
Rp3858
(dp3859
g2602
I1
sg2607
Nsg2608
F1.0
sg148
g0
(g117
g2
Ntp3860
Rp3861
(dp3862
g48
I0
sg49
Nsg70
g71
(g72
(I0
tp3863
g74
tp3864
Rp3865
(I1
(I3
I3
tp3866
g81
I00
S'\x00\x00\x00\x00\x00\x00\xf0?\x00\x00\x00\x00\x00\x00\x00\x00\x00\x00\x00\x00\x00\x00\x00\x00\x00\x00\x00\x00\x00\x00\x00\x00\x00\x00\x00\x00\x00\x00\xf0?\x00\x00\x00\x00\x00\x00\x00\x00\x00\x00\x00\x00\x00\x00\x00\x00\x00\x00\x00\x00\x00\x00\x00\x00\x00\x00\x00\x00\x00\x00\xf0?'
p3867
tp3868
bsg50
g7
sg51
(dp3869
sbsg2619
I00
sg2620
g2621
sg2622
Nsg2135
g2623
sg139
g2624
sg1159
g3731
sbsg32
Nsg2634
g2635
sg134
I01
sg2636
g2637
sg137
Nsg2638
F4.0
sg130
I00
sg2639
g1151
sg141
g3739
sg2641
g3740
sg144
I0
sg2643
g2644
sg2645
I0
sg2646
I5
sg145
I01
sg147
Nsg2647
g2580
sg2648
I00
sg148
g1133
sg2649
I00
sg2650
F2.01
sg42
Nsg2137
Nsg2651
(g3828
tp3870
sg132
Nsg131
F1.0
sg33
Nsg1159
g1161
sbsg145
I00
sg2653
g0
(g2570
g2
Ntp3871
Rp3872
(dp3873
g6
g7
sg8
I01
sg2574
g2575
sg9
g4
sg2576
g2577
sg2578
Nsg10
Nsg41
Nsg17
g18
sg2579
g2580
sg20
I01
sg2581
Nsg23
Nsg55
g71
(g72
(I0
tp3874
g74
tp3875
Rp3876
(I1
(I2
tp3877
g81
I00
S'\x00\x00\x00\x00\x00\x00\x00\x00\x00\x00\x00\x00\x00\x00\x00\x00'
p3878
tp3879
bsg56
g71
(g72
(I0
tp3880
g74
tp3881
Rp3882
(I1
(I2
tp3883
g81
I00
S'\x00\x00\x00\x00\x00\x00\x00\x00\x00\x00\x00\x00\x00\x00\xf0?'
p3884
tp3885
bsg57
Nsg24
Nsg11
Nsg27
I00
sg2594
Nsg28
I00
sg29
(dp3886
sg2596
Nsg31
I00
sg2597
I00
sg2138
Nsg1141
Nsg2598
F0.5
sg2599
g2600
sg2601
Nsg2247
g2248
sg2602
g0
(g2603
g2
Ntp3887
Rp3888
(dp3889
g2602
g2673
sg2607
Nsg2608
Nsg148
g0
(g44
g2
Ntp3890
Rp3891
(dp3892
g48
I1
sg49
Nsg50
g7
sg51
(dp3893
sbsg2619
I00
sg2620
g2621
sg2622
Nsg2135
g2623
sg139
g2624
sg1159
g0
(g1142
g2
Ntp3894
Rp3895
(dp3896
g1146
I00
sg1147
Nsg1148
g71
(g72
(I0
tp3897
g74
tp3898
Rp3899
(I1
(I0
I2
tp3900
g81
I00
g2685
tp3901
bsg1155
I00
sg1156
F0.1111111111111111
sg1157
I1
sg1158
I00
sbsbsg32
Nsg2634
g2635
sg134
I01
sg2636
g2637
sg137
Nsg2638
F0.0
sg130
I01
sg2639
g71
(g72
(I0
tp3902
g74
tp3903
Rp3904
(I1
(I2
I2
tp3905
g81
I00
S'\x00\x00\x00\x00\x00\x00\x00\x00\x00\x00\x00\x00\x00\x00\x00\x00\x00\x00\x00\x00\x00\x00\xf0?\x00\x00\x00\x00\x00\x00\x00\x00'
p3906
tp3907
bsg141
g2693
sg2641
g3779
sg144
I0
sg2643
g2644
sg2645
I0
sg2646
I5
sg145
I01
sg147
F1.0
sg2647
g2580
sg2648
I00
sg148
g1133
sg2649
I00
sg42
Nsg2137
Nsg2651
g3780
sg132
g713
sg131
F0.5
sg33
Nsg1159
g0
(g1142
g2
Ntp3908
Rp3909
(dp3910
g1146
I00
sg1147
Nsg1148
g3904
sg1155
I00
sg1156
F0.1111111111111111
sg1157
I180
sg1158
I00
sbsbsg147
Nsg32
Nsg2699
g0
(g2570
g2
Ntp3911
Rp3912
(dp3913
g6
g7
sg8
I01
sg2574
g2575
sg9
g4
sg2576
g2577
sg2578
Nsg10
Nsg41
Nsg17
g18
sg2579
g2580
sg20
I01
sg2581
Nsg23
Nsg55
g71
(g72
(I0
tp3914
g74
tp3915
Rp3916
(I1
(I1
tp3917
g81
I00
S'\x9a\x99\x99\x99\x99\x99\xc9?'
p3918
tp3919
bsg56
g71
(g72
(I0
tp3920
g74
tp3921
Rp3922
(I1
(I1
tp3923
g81
I00
S'\x00\x00\x00\x00\x00\x00\xf0?'
p3924
tp3925
bsg57
Nsg24
Nsg11
Nsg27
I00
sg2594
Nsg28
I00
sg29
(dp3926
sg2596
Nsg31
I00
sg2597
I00
sg2138
Nsg1141
g1419
sg2598
F0.5
sg2599
g2600
sg2601
Nsg2247
g2248
sg2602
g0
(g2603
g2
Ntp3927
Rp3928
(dp3929
g2602
I0
sg2607
Nsg2608
F1.0
sg148
g0
(g117
g2
Ntp3930
Rp3931
(dp3932
g48
I0
sg49
Nsg70
g71
(g72
(I0
tp3933
g74
tp3934
Rp3935
(I1
(I3
I3
tp3936
g81
I00
S'\x00\x00\x00\x00\x00\x00\xf0\xbf\x00\x00\x00\x00\x00\x00\x00\x00\x00\x00\x00\x00\x00\x00\x00\x00\x00\x00\x00\x00\x00\x00\x00\x00\x00\x00\x00\x00\x00\x00\xf0?\x00\x00\x00\x00\x00\x00\x00\x00\x00\x00\x00\x00\x00\x00\x00\x00\x00\x00\x00\x00\x00\x00\x00\x00\x00\x00\x00\x00\x00\x00\xf0?'
p3937
tp3938
bsg50
g7
sg51
(dp3939
sbsg2619
I00
sg2620
g2621
sg2622
Nsg2135
g2623
sg139
g2624
sg1159
g3731
sbsg32
Nsg2634
g2635
sg134
I01
sg2636
g2637
sg137
Nsg2638
F4.0
sg130
I00
sg2639
g1426
sg141
g3813
sg2641
g3814
sg144
I0
sg2643
g2644
sg2645
I0
sg2646
I5
sg145
I01
sg147
Nsg2647
g2580
sg2648
I00
sg148
g1133
sg2649
I00
sg2650
F2.01
sg42
Nsg2137
Nsg2651
(g3828
tp3940
sg132
Nsg131
F1.0
sg33
Nsg1159
g1431
sbsg148
Nsg2732
g2475
sg2733
g3816
sg42
Nsg2247
g2248
sg33
Nsbag0
(g3670
g2
Ntp3941
Rp3942
(dp3943
g6
g7
sg39
F0.5
sg9
g4
sg2527
I01
sg8
I01
sg10
Nsg144
I0
sg41
Nsg2528
F4.0
sg2529
g2248
sg2530
I00
sg2230
F4.0
sg17
g18
sg2531
g2532
sg2483
g0
(g2214
g2
Ntp3944
Rp3945
(dp3946
g6
g7
sg8
I01
sg9
g4
sg10
Nsg2218
g0
(g2219
g2
Ntp3947
Rp3948
(dp3949
g2223
g3680
sg2226
Nsg2227
g2228
sg2229
g2228
sg2230
g2475
sg2232
I400
sg2233
g2228
sbsg41
Nsg17
g18
sg2234
Nsg20
I01
sg23
Nsg55
g2380
(g81
S'\x9a\x99\x99\x99\x99\x99\xd9?'
p3950
tp3951
Rp3952
sg56
I0
sg24
Nsg11
Nsg27
I00
sg28
I00
sg29
(dp3953
sg2236
Nsg31
I00
sg2138
Nsg132
Nsg2137
Nsg2237
Nsg32
Nsg137
Nsg130
I00
sg2238
g3685
sg2240
V0.4
p3954
sg2242
Nsg57
Nsg144
I0
sg2243
Nsg145
I01
sg147
Nsg2244
F1.2
sg148
g1273
sg2245
Nsg2246
I00
sg42
Nsg2247
g2248
sg2249
g3687
sg33
Nsbsg20
I01
sg23
Nsg2547
I00
sg24
Nsg11
Nsg2548
I01
sg27
I00
sg28
I00
sg29
(dp3955
sg2550
(I1
I0
tp3956
sg31
I00
sg2552
F2.01
sg2138
g2192
sg2553
I01
sg132
Nsg2137
Nsg2554
g3945
sg2555
g0
(g2214
g2
Ntp3957
Rp3958
(dp3959
g6
g7
sg8
I01
sg9
g4
sg10
Nsg2218
g0
(g2219
g2
Ntp3960
Rp3961
(dp3962
g2223
g3696
sg2226
Nsg2227
g2228
sg2229
g2228
sg2230
g2475
sg2232
I400
sg2233
g2228
sbsg41
Nsg17
g18
sg2234
Nsg20
I01
sg23
Nsg55
I0
sg56
I1
sg24
Nsg11
Nsg27
I00
sg28
I00
sg29
(dp3963
sg2236
Nsg31
I00
sg2138
Nsg132
Nsg2137
Nsg2237
Nsg32
Nsg137
Nsg130
I01
sg2238
g3698
sg2240
V0.4
p3964
sg2242
Nsg57
Nsg144
I0
sg2243
Nsg145
I01
sg147
Nsg2244
F1.2
sg148
g1316
sg2245
Nsg2246
I00
sg42
Nsg2247
g2248
sg2249
g3700
sg33
Nsbsg137
Nsg2567
g3952
sg130
I00
sg57
Nsg2568
F4.0
sg2569
g0
(g2570
g2
Ntp3965
Rp3966
(dp3967
g6
g7
sg8
I01
sg2574
g2575
sg9
g4
sg2576
g2577
sg2578
Nsg10
Nsg41
Nsg17
g18
sg2579
g2580
sg20
I01
sg2581
Nsg23
Nsg55
g71
(g72
(I0
tp3968
g74
tp3969
Rp3970
(I1
(I1
tp3971
g81
I00
S'\x9a\x99\x99\x99\x99\x99\xd9?'
p3972
tp3973
bsg56
g71
(g72
(I0
tp3974
g74
tp3975
Rp3976
(I1
(I1
tp3977
g81
I00
S'\x00\x00\x00\x00\x00\x00\x00\x00'
p3978
tp3979
bsg57
Nsg24
Nsg11
Nsg27
I00
sg2594
Nsg28
I00
sg29
(dp3980
sg2596
Nsg31
I00
sg2597
I00
sg2138
Nsg1141
g1178
sg2598
F0.5
sg2599
g2600
sg2601
Nsg2247
g2248
sg2602
g0
(g2603
g2
Ntp3981
Rp3982
(dp3983
g2602
I1
sg2607
Nsg2608
F1.0
sg148
g0
(g117
g2
Ntp3984
Rp3985
(dp3986
g48
I0
sg49
Nsg70
g71
(g72
(I0
tp3987
g74
tp3988
Rp3989
(I1
(I3
I3
tp3990
g81
I00
S'\x00\x00\x00\x00\x00\x00\xf0?\x00\x00\x00\x00\x00\x00\x00\x00\x00\x00\x00\x00\x00\x00\x00\x00\x00\x00\x00\x00\x00\x00\x00\x00\x00\x00\x00\x00\x00\x00\xf0?\x00\x00\x00\x00\x00\x00\x00\x00\x00\x00\x00\x00\x00\x00\x00\x00\x00\x00\x00\x00\x00\x00\x00\x00\x00\x00\x00\x00\x00\x00\xf0?'
p3991
tp3992
bsg50
g7
sg51
(dp3993
sbsg2619
I00
sg2620
g2621
sg2622
Nsg2135
g2623
sg139
g2624
sg1159
g3731
sbsg32
Nsg2634
g2635
sg134
I01
sg2636
g2637
sg137
Nsg2638
F4.0
sg130
I00
sg2639
g1185
sg141
g3739
sg2641
g3740
sg144
I0
sg2643
g2644
sg2645
I0
sg2646
I5
sg145
I01
sg147
Nsg2647
g2580
sg2648
I00
sg148
g1133
sg2649
I00
sg2650
F2.01
sg42
Nsg2137
Nsg2651
(g3952
tp3994
sg132
Nsg131
F1.0
sg33
Nsg1159
g1190
sbsg145
I00
sg2653
g0
(g2570
g2
Ntp3995
Rp3996
(dp3997
g6
g7
sg8
I01
sg2574
g2575
sg9
g4
sg2576
g2577
sg2578
Nsg10
Nsg41
Nsg17
g18
sg2579
g2580
sg20
I01
sg2581
Nsg23
Nsg55
g71
(g72
(I0
tp3998
g74
tp3999
Rp4000
(I1
(I2
tp4001
g81
I00
S'\x00\x00\x00\x00\x00\x00\x00\x00\x00\x00\x00\x00\x00\x00\x00\x00'
p4002
tp4003
bsg56
g71
(g72
(I0
tp4004
g74
tp4005
Rp4006
(I1
(I2
tp4007
g81
I00
S'\x00\x00\x00\x00\x00\x00\x00\x00\x00\x00\x00\x00\x00\x00\xf0?'
p4008
tp4009
bsg57
Nsg24
Nsg11
Nsg27
I00
sg2594
Nsg28
I00
sg29
(dp4010
sg2596
Nsg31
I00
sg2597
I00
sg2138
Nsg1141
Nsg2598
F0.5
sg2599
g2600
sg2601
Nsg2247
g2248
sg2602
g0
(g2603
g2
Ntp4011
Rp4012
(dp4013
g2602
g2673
sg2607
Nsg2608
Nsg148
g0
(g44
g2
Ntp4014
Rp4015
(dp4016
g48
I1
sg49
Nsg50
g7
sg51
(dp4017
sbsg2619
I00
sg2620
g2621
sg2622
Nsg2135
g2623
sg139
g2624
sg1159
g0
(g1142
g2
Ntp4018
Rp4019
(dp4020
g1146
I00
sg1147
Nsg1148
g71
(g72
(I0
tp4021
g74
tp4022
Rp4023
(I1
(I0
I2
tp4024
g81
I00
g2685
tp4025
bsg1155
I00
sg1156
F0.1111111111111111
sg1157
I1
sg1158
I00
sbsbsg32
Nsg2634
g2635
sg134
I01
sg2636
g2637
sg137
Nsg2638
F0.0
sg130
I01
sg2639
g71
(g72
(I0
tp4026
g74
tp4027
Rp4028
(I1
(I2
I2
tp4029
g81
I00
S'\x00\x00\x00\x00\x00\x00\x00\x00\x00\x00\x00\x00\x00\x00\x00\x00\x00\x00\x00\x00\x00\x00\xf0?\x00\x00\x00\x00\x00\x00\x00\x00'
p4030
tp4031
bsg141
g2693
sg2641
g3779
sg144
I0
sg2643
g2644
sg2645
I0
sg2646
I5
sg145
I01
sg147
F1.0
sg2647
g2580
sg2648
I00
sg148
g1133
sg2649
I00
sg42
Nsg2137
Nsg2651
g3780
sg132
g713
sg131
F0.5
sg33
Nsg1159
g0
(g1142
g2
Ntp4032
Rp4033
(dp4034
g1146
I00
sg1147
Nsg1148
g4028
sg1155
I00
sg1156
F0.1111111111111111
sg1157
I180
sg1158
I00
sbsbsg147
Nsg32
Nsg2699
g0
(g2570
g2
Ntp4035
Rp4036
(dp4037
g6
g7
sg8
I01
sg2574
g2575
sg9
g4
sg2576
g2577
sg2578
Nsg10
Nsg41
Nsg17
g18
sg2579
g2580
sg20
I01
sg2581
Nsg23
Nsg55
g71
(g72
(I0
tp4038
g74
tp4039
Rp4040
(I1
(I1
tp4041
g81
I00
S'\x9a\x99\x99\x99\x99\x99\xd9?'
p4042
tp4043
bsg56
g71
(g72
(I0
tp4044
g74
tp4045
Rp4046
(I1
(I1
tp4047
g81
I00
S'\x00\x00\x00\x00\x00\x00\xf0?'
p4048
tp4049
bsg57
Nsg24
Nsg11
Nsg27
I00
sg2594
Nsg28
I00
sg29
(dp4050
sg2596
Nsg31
I00
sg2597
I00
sg2138
Nsg1141
g1197
sg2598
F0.5
sg2599
g2600
sg2601
Nsg2247
g2248
sg2602
g0
(g2603
g2
Ntp4051
Rp4052
(dp4053
g2602
I0
sg2607
Nsg2608
F1.0
sg148
g0
(g117
g2
Ntp4054
Rp4055
(dp4056
g48
I0
sg49
Nsg70
g71
(g72
(I0
tp4057
g74
tp4058
Rp4059
(I1
(I3
I3
tp4060
g81
I00
S'\x00\x00\x00\x00\x00\x00\xf0\xbf\x00\x00\x00\x00\x00\x00\x00\x00\x00\x00\x00\x00\x00\x00\x00\x00\x00\x00\x00\x00\x00\x00\x00\x00\x00\x00\x00\x00\x00\x00\xf0?\x00\x00\x00\x00\x00\x00\x00\x00\x00\x00\x00\x00\x00\x00\x00\x00\x00\x00\x00\x00\x00\x00\x00\x00\x00\x00\x00\x00\x00\x00\xf0?'
p4061
tp4062
bsg50
g7
sg51
(dp4063
sbsg2619
I00
sg2620
g2621
sg2622
Nsg2135
g2623
sg139
g2624
sg1159
g3731
sbsg32
Nsg2634
g2635
sg134
I01
sg2636
g2637
sg137
Nsg2638
F4.0
sg130
I00
sg2639
g1204
sg141
g3813
sg2641
g3814
sg144
I0
sg2643
g2644
sg2645
I0
sg2646
I5
sg145
I01
sg147
Nsg2647
g2580
sg2648
I00
sg148
g1133
sg2649
I00
sg2650
F2.01
sg42
Nsg2137
Nsg2651
(g3952
tp4064
sg132
Nsg131
F1.0
sg33
Nsg1159
g1209
sbsg148
Nsg2732
g2475
sg2733
g3816
sg42
Nsg2247
g2248
sg33
Nsbag0
(g3670
g2
Ntp4065
Rp4066
(dp4067
g6
g7
sg39
F0.5
sg9
g4
sg2527
I01
sg8
I01
sg10
Nsg144
I0
sg41
Nsg2528
F4.0
sg2529
g2248
sg2530
I00
sg2230
F4.0
sg17
g18
sg2531
g2532
sg2483
g0
(g2214
g2
Ntp4068
Rp4069
(dp4070
g6
g7
sg8
I01
sg9
g4
sg10
Nsg2218
g0
(g2219
g2
Ntp4071
Rp4072
(dp4073
g2223
g3680
sg2226
Nsg2227
g2228
sg2229
g2228
sg2230
g2475
sg2232
I400
sg2233
g2228
sbsg41
Nsg17
g18
sg2234
Nsg20
I01
sg23
Nsg55
g2380
(g81
S'433333\xe3?'
p4074
tp4075
Rp4076
sg56
I0
sg24
Nsg11
Nsg27
I00
sg28
I00
sg29
(dp4077
sg2236
Nsg31
I00
sg2138
Nsg132
Nsg2137
Nsg2237
Nsg32
Nsg137
Nsg130
I00
sg2238
g3685
sg2240
V0.6
p4078
sg2242
Nsg57
Nsg144
I0
sg2243
Nsg145
I01
sg147
Nsg2244
F1.2
sg148
g1273
sg2245
Nsg2246
I00
sg42
Nsg2247
g2248
sg2249
g3687
sg33
Nsbsg20
I01
sg23
Nsg2547
I00
sg24
Nsg11
Nsg2548
I01
sg27
I00
sg28
I00
sg29
(dp4079
sg2550
(I1
I0
tp4080
sg31
I00
sg2552
F2.01
sg2138
g2192
sg2553
I01
sg132
Nsg2137
Nsg2554
g4069
sg2555
g0
(g2214
g2
Ntp4081
Rp4082
(dp4083
g6
g7
sg8
I01
sg9
g4
sg10
Nsg2218
g0
(g2219
g2
Ntp4084
Rp4085
(dp4086
g2223
g3696
sg2226
Nsg2227
g2228
sg2229
g2228
sg2230
g2475
sg2232
I400
sg2233
g2228
sbsg41
Nsg17
g18
sg2234
Nsg20
I01
sg23
Nsg55
I0
sg56
I1
sg24
Nsg11
Nsg27
I00
sg28
I00
sg29
(dp4087
sg2236
Nsg31
I00
sg2138
Nsg132
Nsg2137
Nsg2237
Nsg32
Nsg137
Nsg130
I01
sg2238
g3698
sg2240
V0.6
p4088
sg2242
Nsg57
Nsg144
I0
sg2243
Nsg145
I01
sg147
Nsg2244
F1.2
sg148
g1316
sg2245
Nsg2246
I00
sg42
Nsg2247
g2248
sg2249
g3700
sg33
Nsbsg137
Nsg2567
g4076
sg130
I00
sg57
Nsg2568
F4.0
sg2569
g0
(g2570
g2
Ntp4089
Rp4090
(dp4091
g6
g7
sg8
I01
sg2574
g2575
sg9
g4
sg2576
g2577
sg2578
Nsg10
Nsg41
Nsg17
g18
sg2579
g2580
sg20
I01
sg2581
Nsg23
Nsg55
g71
(g72
(I0
tp4092
g74
tp4093
Rp4094
(I1
(I1
tp4095
g81
I00
S'433333\xe3?'
p4096
tp4097
bsg56
g71
(g72
(I0
tp4098
g74
tp4099
Rp4100
(I1
(I1
tp4101
g81
I00
S'\x00\x00\x00\x00\x00\x00\x00\x00'
p4102
tp4103
bsg57
Nsg24
Nsg11
Nsg27
I00
sg2594
Nsg28
I00
sg29
(dp4104
sg2596
Nsg31
I00
sg2597
I00
sg2138
Nsg1141
g1363
sg2598
F0.5
sg2599
g2600
sg2601
Nsg2247
g2248
sg2602
g0
(g2603
g2
Ntp4105
Rp4106
(dp4107
g2602
I1
sg2607
Nsg2608
F1.0
sg148
g0
(g117
g2
Ntp4108
Rp4109
(dp4110
g48
I0
sg49
Nsg70
g71
(g72
(I0
tp4111
g74
tp4112
Rp4113
(I1
(I3
I3
tp4114
g81
I00
S'\x00\x00\x00\x00\x00\x00\xf0?\x00\x00\x00\x00\x00\x00\x00\x00\x00\x00\x00\x00\x00\x00\x00\x00\x00\x00\x00\x00\x00\x00\x00\x00\x00\x00\x00\x00\x00\x00\xf0?\x00\x00\x00\x00\x00\x00\x00\x00\x00\x00\x00\x00\x00\x00\x00\x00\x00\x00\x00\x00\x00\x00\x00\x00\x00\x00\x00\x00\x00\x00\xf0?'
p4115
tp4116
bsg50
g7
sg51
(dp4117
sbsg2619
I00
sg2620
g2621
sg2622
Nsg2135
g2623
sg139
g2624
sg1159
g3731
sbsg32
Nsg2634
g2635
sg134
I01
sg2636
g2637
sg137
Nsg2638
F4.0
sg130
I00
sg2639
g1370
sg141
g3739
sg2641
g3740
sg144
I0
sg2643
g2644
sg2645
I0
sg2646
I5
sg145
I01
sg147
Nsg2647
g2580
sg2648
I00
sg148
g1133
sg2649
I00
sg2650
F2.01
sg42
Nsg2137
Nsg2651
(g4076
tp4118
sg132
Nsg131
F1.0
sg33
Nsg1159
g1375
sbsg145
I00
sg2653
g0
(g2570
g2
Ntp4119
Rp4120
(dp4121
g6
g7
sg8
I01
sg2574
g2575
sg9
g4
sg2576
g2577
sg2578
Nsg10
Nsg41
Nsg17
g18
sg2579
g2580
sg20
I01
sg2581
Nsg23
Nsg55
g71
(g72
(I0
tp4122
g74
tp4123
Rp4124
(I1
(I2
tp4125
g81
I00
S'\x00\x00\x00\x00\x00\x00\x00\x00\x00\x00\x00\x00\x00\x00\x00\x00'
p4126
tp4127
bsg56
g71
(g72
(I0
tp4128
g74
tp4129
Rp4130
(I1
(I2
tp4131
g81
I00
S'\x00\x00\x00\x00\x00\x00\x00\x00\x00\x00\x00\x00\x00\x00\xf0?'
p4132
tp4133
bsg57
Nsg24
Nsg11
Nsg27
I00
sg2594
Nsg28
I00
sg29
(dp4134
sg2596
Nsg31
I00
sg2597
I00
sg2138
Nsg1141
Nsg2598
F0.5
sg2599
g2600
sg2601
Nsg2247
g2248
sg2602
g0
(g2603
g2
Ntp4135
Rp4136
(dp4137
g2602
g2673
sg2607
Nsg2608
Nsg148
g0
(g44
g2
Ntp4138
Rp4139
(dp4140
g48
I1
sg49
Nsg50
g7
sg51
(dp4141
sbsg2619
I00
sg2620
g2621
sg2622
Nsg2135
g2623
sg139
g2624
sg1159
g0
(g1142
g2
Ntp4142
Rp4143
(dp4144
g1146
I00
sg1147
Nsg1148
g71
(g72
(I0
tp4145
g74
tp4146
Rp4147
(I1
(I0
I2
tp4148
g81
I00
g2685
tp4149
bsg1155
I00
sg1156
F0.1111111111111111
sg1157
I1
sg1158
I00
sbsbsg32
Nsg2634
g2635
sg134
I01
sg2636
g2637
sg137
Nsg2638
F0.0
sg130
I01
sg2639
g71
(g72
(I0
tp4150
g74
tp4151
Rp4152
(I1
(I2
I2
tp4153
g81
I00
S'\x00\x00\x00\x00\x00\x00\x00\x00\x00\x00\x00\x00\x00\x00\x00\x00\x00\x00\x00\x00\x00\x00\xf0?\x00\x00\x00\x00\x00\x00\x00\x00'
p4154
tp4155
bsg141
g2693
sg2641
g3779
sg144
I0
sg2643
g2644
sg2645
I0
sg2646
I5
sg145
I01
sg147
F1.0
sg2647
g2580
sg2648
I00
sg148
g1133
sg2649
I00
sg42
Nsg2137
Nsg2651
g3780
sg132
g713
sg131
F0.5
sg33
Nsg1159
g0
(g1142
g2
Ntp4156
Rp4157
(dp4158
g1146
I00
sg1147
Nsg1148
g4152
sg1155
I00
sg1156
F0.1111111111111111
sg1157
I180
sg1158
I00
sbsbsg147
Nsg32
Nsg2699
g0
(g2570
g2
Ntp4159
Rp4160
(dp4161
g6
g7
sg8
I01
sg2574
g2575
sg9
g4
sg2576
g2577
sg2578
Nsg10
Nsg41
Nsg17
g18
sg2579
g2580
sg20
I01
sg2581
Nsg23
Nsg55
g71
(g72
(I0
tp4162
g74
tp4163
Rp4164
(I1
(I1
tp4165
g81
I00
S'433333\xe3?'
p4166
tp4167
bsg56
g71
(g72
(I0
tp4168
g74
tp4169
Rp4170
(I1
(I1
tp4171
g81
I00
S'\x00\x00\x00\x00\x00\x00\xf0?'
p4172
tp4173
bsg57
Nsg24
Nsg11
Nsg27
I00
sg2594
Nsg28
I00
sg29
(dp4174
sg2596
Nsg31
I00
sg2597
I00
sg2138
Nsg1141
g1288
sg2598
F0.5
sg2599
g2600
sg2601
Nsg2247
g2248
sg2602
g0
(g2603
g2
Ntp4175
Rp4176
(dp4177
g2602
I0
sg2607
Nsg2608
F1.0
sg148
g0
(g117
g2
Ntp4178
Rp4179
(dp4180
g48
I0
sg49
Nsg70
g71
(g72
(I0
tp4181
g74
tp4182
Rp4183
(I1
(I3
I3
tp4184
g81
I00
S'\x00\x00\x00\x00\x00\x00\xf0\xbf\x00\x00\x00\x00\x00\x00\x00\x00\x00\x00\x00\x00\x00\x00\x00\x00\x00\x00\x00\x00\x00\x00\x00\x00\x00\x00\x00\x00\x00\x00\xf0?\x00\x00\x00\x00\x00\x00\x00\x00\x00\x00\x00\x00\x00\x00\x00\x00\x00\x00\x00\x00\x00\x00\x00\x00\x00\x00\x00\x00\x00\x00\xf0?'
p4185
tp4186
bsg50
g7
sg51
(dp4187
sbsg2619
I00
sg2620
g2621
sg2622
Nsg2135
g2623
sg139
g2624
sg1159
g3731
sbsg32
Nsg2634
g2635
sg134
I01
sg2636
g2637
sg137
Nsg2638
F4.0
sg130
I00
sg2639
g1295
sg141
g3813
sg2641
g3814
sg144
I0
sg2643
g2644
sg2645
I0
sg2646
I5
sg145
I01
sg147
Nsg2647
g2580
sg2648
I00
sg148
g1133
sg2649
I00
sg2650
F2.01
sg42
Nsg2137
Nsg2651
(g4076
tp4188
sg132
Nsg131
F1.0
sg33
Nsg1159
g1300
sbsg148
Nsg2732
g2475
sg2733
g3816
sg42
Nsg2247
g2248
sg33
Nsbag0
(g3670
g2
Ntp4189
Rp4190
(dp4191
g6
g7
sg39
F0.5
sg9
g4
sg2527
I01
sg8
I01
sg10
Nsg144
I0
sg41
Nsg2528
F4.0
sg2529
g2248
sg2530
I00
sg2230
F4.0
sg17
g18
sg2531
g2532
sg2483
g0
(g2214
g2
Ntp4192
Rp4193
(dp4194
g6
g7
sg8
I01
sg9
g4
sg10
Nsg2218
g0
(g2219
g2
Ntp4195
Rp4196
(dp4197
g2223
g3680
sg2226
Nsg2227
g2228
sg2229
g2228
sg2230
g2475
sg2232
I400
sg2233
g2228
sbsg41
Nsg17
g18
sg2234
Nsg20
I01
sg23
Nsg55
g2380
(g81
S'\x9a\x99\x99\x99\x99\x99\xe9?'
p4198
tp4199
Rp4200
sg56
I0
sg24
Nsg11
Nsg27
I00
sg28
I00
sg29
(dp4201
sg2236
Nsg31
I00
sg2138
Nsg132
Nsg2137
Nsg2237
Nsg32
Nsg137
Nsg130
I00
sg2238
g3685
sg2240
V0.8
p4202
sg2242
Nsg57
Nsg144
I0
sg2243
Nsg145
I01
sg147
Nsg2244
F1.2
sg148
g1273
sg2245
Nsg2246
I00
sg42
Nsg2247
g2248
sg2249
g3687
sg33
Nsbsg20
I01
sg23
Nsg2547
I00
sg24
Nsg11
Nsg2548
I01
sg27
I00
sg28
I00
sg29
(dp4203
sg2550
(I1
I0
tp4204
sg31
I00
sg2552
F2.01
sg2138
g2192
sg2553
I01
sg132
Nsg2137
Nsg2554
g4193
sg2555
g0
(g2214
g2
Ntp4205
Rp4206
(dp4207
g6
g7
sg8
I01
sg9
g4
sg10
Nsg2218
g0
(g2219
g2
Ntp4208
Rp4209
(dp4210
g2223
g3696
sg2226
Nsg2227
g2228
sg2229
g2228
sg2230
g2475
sg2232
I400
sg2233
g2228
sbsg41
Nsg17
g18
sg2234
Nsg20
I01
sg23
Nsg55
I0
sg56
I1
sg24
Nsg11
Nsg27
I00
sg28
I00
sg29
(dp4211
sg2236
Nsg31
I00
sg2138
Nsg132
Nsg2137
Nsg2237
Nsg32
Nsg137
Nsg130
I01
sg2238
g3698
sg2240
V0.8
p4212
sg2242
Nsg57
Nsg144
I0
sg2243
Nsg145
I01
sg147
Nsg2244
F1.2
sg148
g1316
sg2245
Nsg2246
I00
sg42
Nsg2247
g2248
sg2249
g3700
sg33
Nsbsg137
Nsg2567
g4200
sg130
I00
sg57
Nsg2568
F4.0
sg2569
g0
(g2570
g2
Ntp4213
Rp4214
(dp4215
g6
g7
sg8
I01
sg2574
g2575
sg9
g4
sg2576
g2577
sg2578
Nsg10
Nsg41
Nsg17
g18
sg2579
g2580
sg20
I01
sg2581
Nsg23
Nsg55
g71
(g72
(I0
tp4216
g74
tp4217
Rp4218
(I1
(I1
tp4219
g81
I00
S'\x9a\x99\x99\x99\x99\x99\xe9?'
p4220
tp4221
bsg56
g71
(g72
(I0
tp4222
g74
tp4223
Rp4224
(I1
(I1
tp4225
g81
I00
S'\x00\x00\x00\x00\x00\x00\x00\x00'
p4226
tp4227
bsg57
Nsg24
Nsg11
Nsg27
I00
sg2594
Nsg28
I00
sg29
(dp4228
sg2596
Nsg31
I00
sg2597
I00
sg2138
Nsg1141
g1382
sg2598
F0.5
sg2599
g2600
sg2601
Nsg2247
g2248
sg2602
g0
(g2603
g2
Ntp4229
Rp4230
(dp4231
g2602
I1
sg2607
Nsg2608
F1.0
sg148
g0
(g117
g2
Ntp4232
Rp4233
(dp4234
g48
I0
sg49
Nsg70
g71
(g72
(I0
tp4235
g74
tp4236
Rp4237
(I1
(I3
I3
tp4238
g81
I00
S'\x00\x00\x00\x00\x00\x00\xf0?\x00\x00\x00\x00\x00\x00\x00\x00\x00\x00\x00\x00\x00\x00\x00\x00\x00\x00\x00\x00\x00\x00\x00\x00\x00\x00\x00\x00\x00\x00\xf0?\x00\x00\x00\x00\x00\x00\x00\x00\x00\x00\x00\x00\x00\x00\x00\x00\x00\x00\x00\x00\x00\x00\x00\x00\x00\x00\x00\x00\x00\x00\xf0?'
p4239
tp4240
bsg50
g7
sg51
(dp4241
sbsg2619
I00
sg2620
g2621
sg2622
Nsg2135
g2623
sg139
g2624
sg1159
g3731
sbsg32
Nsg2634
g2635
sg134
I01
sg2636
g2637
sg137
Nsg2638
F4.0
sg130
I00
sg2639
g1389
sg141
g3739
sg2641
g3740
sg144
I0
sg2643
g2644
sg2645
I0
sg2646
I5
sg145
I01
sg147
Nsg2647
g2580
sg2648
I00
sg148
g1133
sg2649
I00
sg2650
F2.01
sg42
Nsg2137
Nsg2651
(g4200
tp4242
sg132
Nsg131
F1.0
sg33
Nsg1159
g1394
sbsg145
I00
sg2653
g0
(g2570
g2
Ntp4243
Rp4244
(dp4245
g6
g7
sg8
I01
sg2574
g2575
sg9
g4
sg2576
g2577
sg2578
Nsg10
Nsg41
Nsg17
g18
sg2579
g2580
sg20
I01
sg2581
Nsg23
Nsg55
g71
(g72
(I0
tp4246
g74
tp4247
Rp4248
(I1
(I2
tp4249
g81
I00
S'\x00\x00\x00\x00\x00\x00\x00\x00\x00\x00\x00\x00\x00\x00\x00\x00'
p4250
tp4251
bsg56
g71
(g72
(I0
tp4252
g74
tp4253
Rp4254
(I1
(I2
tp4255
g81
I00
S'\x00\x00\x00\x00\x00\x00\x00\x00\x00\x00\x00\x00\x00\x00\xf0?'
p4256
tp4257
bsg57
Nsg24
Nsg11
Nsg27
I00
sg2594
Nsg28
I00
sg29
(dp4258
sg2596
Nsg31
I00
sg2597
I00
sg2138
Nsg1141
Nsg2598
F0.5
sg2599
g2600
sg2601
Nsg2247
g2248
sg2602
g0
(g2603
g2
Ntp4259
Rp4260
(dp4261
g2602
g2673
sg2607
Nsg2608
Nsg148
g0
(g44
g2
Ntp4262
Rp4263
(dp4264
g48
I1
sg49
Nsg50
g7
sg51
(dp4265
sbsg2619
I00
sg2620
g2621
sg2622
Nsg2135
g2623
sg139
g2624
sg1159
g0
(g1142
g2
Ntp4266
Rp4267
(dp4268
g1146
I00
sg1147
Nsg1148
g71
(g72
(I0
tp4269
g74
tp4270
Rp4271
(I1
(I0
I2
tp4272
g81
I00
g2685
tp4273
bsg1155
I00
sg1156
F0.1111111111111111
sg1157
I1
sg1158
I00
sbsbsg32
Nsg2634
g2635
sg134
I01
sg2636
g2637
sg137
Nsg2638
F0.0
sg130
I01
sg2639
g71
(g72
(I0
tp4274
g74
tp4275
Rp4276
(I1
(I2
I2
tp4277
g81
I00
S'\x00\x00\x00\x00\x00\x00\x00\x00\x00\x00\x00\x00\x00\x00\x00\x00\x00\x00\x00\x00\x00\x00\xf0?\x00\x00\x00\x00\x00\x00\x00\x00'
p4278
tp4279
bsg141
g2693
sg2641
g3779
sg144
I0
sg2643
g2644
sg2645
I0
sg2646
I5
sg145
I01
sg147
F1.0
sg2647
g2580
sg2648
I00
sg148
g1133
sg2649
I00
sg42
Nsg2137
Nsg2651
g3780
sg132
g713
sg131
F0.5
sg33
Nsg1159
g0
(g1142
g2
Ntp4280
Rp4281
(dp4282
g1146
I00
sg1147
Nsg1148
g4276
sg1155
I00
sg1156
F0.1111111111111111
sg1157
I180
sg1158
I00
sbsbsg147
Nsg32
Nsg2699
g0
(g2570
g2
Ntp4283
Rp4284
(dp4285
g6
g7
sg8
I01
sg2574
g2575
sg9
g4
sg2576
g2577
sg2578
Nsg10
Nsg41
Nsg17
g18
sg2579
g2580
sg20
I01
sg2581
Nsg23
Nsg55
g71
(g72
(I0
tp4286
g74
tp4287
Rp4288
(I1
(I1
tp4289
g81
I00
S'\x9a\x99\x99\x99\x99\x99\xe9?'
p4290
tp4291
bsg56
g71
(g72
(I0
tp4292
g74
tp4293
Rp4294
(I1
(I1
tp4295
g81
I00
S'\x00\x00\x00\x00\x00\x00\xf0?'
p4296
tp4297
bsg57
Nsg24
Nsg11
Nsg27
I00
sg2594
Nsg28
I00
sg29
(dp4298
sg2596
Nsg31
I00
sg2597
I00
sg2138
Nsg1141
g1344
sg2598
F0.5
sg2599
g2600
sg2601
Nsg2247
g2248
sg2602
g0
(g2603
g2
Ntp4299
Rp4300
(dp4301
g2602
I0
sg2607
Nsg2608
F1.0
sg148
g0
(g117
g2
Ntp4302
Rp4303
(dp4304
g48
I0
sg49
Nsg70
g71
(g72
(I0
tp4305
g74
tp4306
Rp4307
(I1
(I3
I3
tp4308
g81
I00
S'\x00\x00\x00\x00\x00\x00\xf0\xbf\x00\x00\x00\x00\x00\x00\x00\x00\x00\x00\x00\x00\x00\x00\x00\x00\x00\x00\x00\x00\x00\x00\x00\x00\x00\x00\x00\x00\x00\x00\xf0?\x00\x00\x00\x00\x00\x00\x00\x00\x00\x00\x00\x00\x00\x00\x00\x00\x00\x00\x00\x00\x00\x00\x00\x00\x00\x00\x00\x00\x00\x00\xf0?'
p4309
tp4310
bsg50
g7
sg51
(dp4311
sbsg2619
I00
sg2620
g2621
sg2622
Nsg2135
g2623
sg139
g2624
sg1159
g3731
sbsg32
Nsg2634
g2635
sg134
I01
sg2636
g2637
sg137
Nsg2638
F4.0
sg130
I00
sg2639
g1351
sg141
g3813
sg2641
g3814
sg144
I0
sg2643
g2644
sg2645
I0
sg2646
I5
sg145
I01
sg147
Nsg2647
g2580
sg2648
I00
sg148
g1133
sg2649
I00
sg2650
F2.01
sg42
Nsg2137
Nsg2651
(g4200
tp4312
sg132
Nsg131
F1.0
sg33
Nsg1159
g1356
sbsg148
Nsg2732
g2475
sg2733
g3816
sg42
Nsg2247
g2248
sg33
Nsbag0
(g3670
g2
Ntp4313
Rp4314
(dp4315
g6
g7
sg39
F0.5
sg9
g4
sg2527
I01
sg8
I01
sg10
Nsg144
I0
sg41
Nsg2528
F4.0
sg2529
g2248
sg2530
I00
sg2230
F4.0
sg17
g18
sg2531
g2532
sg2483
g0
(g2214
g2
Ntp4316
Rp4317
(dp4318
g6
g7
sg8
I01
sg9
g4
sg10
Nsg2218
g0
(g2219
g2
Ntp4319
Rp4320
(dp4321
g2223
g3680
sg2226
Nsg2227
g2228
sg2229
g2228
sg2230
g2475
sg2232
I400
sg2233
g2228
sbsg41
Nsg17
g18
sg2234
Nsg20
I01
sg23
Nsg55
g2380
(g81
S'\x00\x00\x00\x00\x00\x00\xf0?'
p4322
tp4323
Rp4324
sg56
I0
sg24
Nsg11
Nsg27
I00
sg28
I00
sg29
(dp4325
sg2236
Nsg31
I00
sg2138
Nsg132
Nsg2137
Nsg2237
Nsg32
Nsg137
Nsg130
I00
sg2238
g3685
sg2240
V1.0
p4326
sg2242
Nsg57
Nsg144
I0
sg2243
Nsg145
I01
sg147
Nsg2244
F1.2
sg148
g1273
sg2245
Nsg2246
I00
sg42
Nsg2247
g2248
sg2249
g3687
sg33
Nsbsg20
I01
sg23
Nsg2547
I00
sg24
Nsg11
Nsg2548
I01
sg27
I00
sg28
I00
sg29
(dp4327
sg2550
(I1
I0
tp4328
sg31
I00
sg2552
F2.01
sg2138
g2192
sg2553
I01
sg132
Nsg2137
Nsg2554
g4317
sg2555
g0
(g2214
g2
Ntp4329
Rp4330
(dp4331
g6
g7
sg8
I01
sg9
g4
sg10
Nsg2218
g0
(g2219
g2
Ntp4332
Rp4333
(dp4334
g2223
g3696
sg2226
Nsg2227
g2228
sg2229
g2228
sg2230
g2475
sg2232
I400
sg2233
g2228
sbsg41
Nsg17
g18
sg2234
Nsg20
I01
sg23
Nsg55
I0
sg56
I1
sg24
Nsg11
Nsg27
I00
sg28
I00
sg29
(dp4335
sg2236
Nsg31
I00
sg2138
Nsg132
Nsg2137
Nsg2237
Nsg32
Nsg137
Nsg130
I01
sg2238
g3698
sg2240
V1.0
p4336
sg2242
Nsg57
Nsg144
I0
sg2243
Nsg145
I01
sg147
Nsg2244
F1.2
sg148
g1316
sg2245
Nsg2246
I00
sg42
Nsg2247
g2248
sg2249
g3700
sg33
Nsbsg137
Nsg2567
g4324
sg130
I00
sg57
Nsg2568
F4.0
sg2569
g0
(g2570
g2
Ntp4337
Rp4338
(dp4339
g6
g7
sg8
I01
sg2574
g2575
sg9
g4
sg2576
g2577
sg2578
Nsg10
Nsg41
Nsg17
g18
sg2579
g2580
sg20
I01
sg2581
Nsg23
Nsg55
g71
(g72
(I0
tp4340
g74
tp4341
Rp4342
(I1
(I1
tp4343
g81
I00
S'\x00\x00\x00\x00\x00\x00\xf0?'
p4344
tp4345
bsg56
g71
(g72
(I0
tp4346
g74
tp4347
Rp4348
(I1
(I1
tp4349
g81
I00
S'\x00\x00\x00\x00\x00\x00\x00\x00'
p4350
tp4351
bsg57
Nsg24
Nsg11
Nsg27
I00
sg2594
Nsg28
I00
sg29
(dp4352
sg2596
Nsg31
I00
sg2597
I00
sg2138
Nsg1141
g1325
sg2598
F0.5
sg2599
g2600
sg2601
Nsg2247
g2248
sg2602
g0
(g2603
g2
Ntp4353
Rp4354
(dp4355
g2602
I1
sg2607
Nsg2608
F1.0
sg148
g0
(g117
g2
Ntp4356
Rp4357
(dp4358
g48
I0
sg49
Nsg70
g71
(g72
(I0
tp4359
g74
tp4360
Rp4361
(I1
(I3
I3
tp4362
g81
I00
S'\x00\x00\x00\x00\x00\x00\xf0?\x00\x00\x00\x00\x00\x00\x00\x00\x00\x00\x00\x00\x00\x00\x00\x00\x00\x00\x00\x00\x00\x00\x00\x00\x00\x00\x00\x00\x00\x00\xf0?\x00\x00\x00\x00\x00\x00\x00\x00\x00\x00\x00\x00\x00\x00\x00\x00\x00\x00\x00\x00\x00\x00\x00\x00\x00\x00\x00\x00\x00\x00\xf0?'
p4363
tp4364
bsg50
g7
sg51
(dp4365
sbsg2619
I00
sg2620
g2621
sg2622
Nsg2135
g2623
sg139
g2624
sg1159
g3731
sbsg32
Nsg2634
g2635
sg134
I01
sg2636
g2637
sg137
Nsg2638
F4.0
sg130
I00
sg2639
g1332
sg141
g3739
sg2641
g3740
sg144
I0
sg2643
g2644
sg2645
I0
sg2646
I5
sg145
I01
sg147
Nsg2647
g2580
sg2648
I00
sg148
g1133
sg2649
I00
sg2650
F2.01
sg42
Nsg2137
Nsg2651
(g4324
tp4366
sg132
Nsg131
F1.0
sg33
Nsg1159
g1337
sbsg145
I00
sg2653
g0
(g2570
g2
Ntp4367
Rp4368
(dp4369
g6
g7
sg8
I01
sg2574
g2575
sg9
g4
sg2576
g2577
sg2578
Nsg10
Nsg41
Nsg17
g18
sg2579
g2580
sg20
I01
sg2581
Nsg23
Nsg55
g71
(g72
(I0
tp4370
g74
tp4371
Rp4372
(I1
(I2
tp4373
g81
I00
S'\x00\x00\x00\x00\x00\x00\x00\x00\x00\x00\x00\x00\x00\x00\x00\x00'
p4374
tp4375
bsg56
g71
(g72
(I0
tp4376
g74
tp4377
Rp4378
(I1
(I2
tp4379
g81
I00
S'\x00\x00\x00\x00\x00\x00\x00\x00\x00\x00\x00\x00\x00\x00\xf0?'
p4380
tp4381
bsg57
Nsg24
Nsg11
Nsg27
I00
sg2594
Nsg28
I00
sg29
(dp4382
sg2596
Nsg31
I00
sg2597
I00
sg2138
Nsg1141
Nsg2598
F0.5
sg2599
g2600
sg2601
Nsg2247
g2248
sg2602
g0
(g2603
g2
Ntp4383
Rp4384
(dp4385
g2602
g2673
sg2607
Nsg2608
Nsg148
g0
(g44
g2
Ntp4386
Rp4387
(dp4388
g48
I1
sg49
Nsg50
g7
sg51
(dp4389
sbsg2619
I00
sg2620
g2621
sg2622
Nsg2135
g2623
sg139
g2624
sg1159
g0
(g1142
g2
Ntp4390
Rp4391
(dp4392
g1146
I00
sg1147
Nsg1148
g71
(g72
(I0
tp4393
g74
tp4394
Rp4395
(I1
(I0
I2
tp4396
g81
I00
g2685
tp4397
bsg1155
I00
sg1156
F0.1111111111111111
sg1157
I1
sg1158
I00
sbsbsg32
Nsg2634
g2635
sg134
I01
sg2636
g2637
sg137
Nsg2638
F0.0
sg130
I01
sg2639
g71
(g72
(I0
tp4398
g74
tp4399
Rp4400
(I1
(I2
I2
tp4401
g81
I00
S'\x00\x00\x00\x00\x00\x00\x00\x00\x00\x00\x00\x00\x00\x00\x00\x00\x00\x00\x00\x00\x00\x00\xf0?\x00\x00\x00\x00\x00\x00\x00\x00'
p4402
tp4403
bsg141
g2693
sg2641
g3779
sg144
I0
sg2643
g2644
sg2645
I0
sg2646
I5
sg145
I01
sg147
F1.0
sg2647
g2580
sg2648
I00
sg148
g1133
sg2649
I00
sg42
Nsg2137
Nsg2651
g3780
sg132
g713
sg131
F0.5
sg33
Nsg1159
g0
(g1142
g2
Ntp4404
Rp4405
(dp4406
g1146
I00
sg1147
Nsg1148
g4400
sg1155
I00
sg1156
F0.1111111111111111
sg1157
I180
sg1158
I00
sbsbsg147
Nsg32
Nsg2699
g0
(g2570
g2
Ntp4407
Rp4408
(dp4409
g6
g7
sg8
I01
sg2574
g2575
sg9
g4
sg2576
g2577
sg2578
Nsg10
Nsg41
Nsg17
g18
sg2579
g2580
sg20
I01
sg2581
Nsg23
Nsg55
g71
(g72
(I0
tp4410
g74
tp4411
Rp4412
(I1
(I1
tp4413
g81
I00
S'\x00\x00\x00\x00\x00\x00\xf0?'
p4414
tp4415
bsg56
g71
(g72
(I0
tp4416
g74
tp4417
Rp4418
(I1
(I1
tp4419
g81
I00
S'\x00\x00\x00\x00\x00\x00\xf0?'
p4420
tp4421
bsg57
Nsg24
Nsg11
Nsg27
I00
sg2594
Nsg28
I00
sg29
(dp4422
sg2596
Nsg31
I00
sg2597
I00
sg2138
Nsg1141
g1216
sg2598
F0.5
sg2599
g2600
sg2601
Nsg2247
g2248
sg2602
g0
(g2603
g2
Ntp4423
Rp4424
(dp4425
g2602
I0
sg2607
Nsg2608
F1.0
sg148
g0
(g117
g2
Ntp4426
Rp4427
(dp4428
g48
I0
sg49
Nsg70
g71
(g72
(I0
tp4429
g74
tp4430
Rp4431
(I1
(I3
I3
tp4432
g81
I00
S'\x00\x00\x00\x00\x00\x00\xf0\xbf\x00\x00\x00\x00\x00\x00\x00\x00\x00\x00\x00\x00\x00\x00\x00\x00\x00\x00\x00\x00\x00\x00\x00\x00\x00\x00\x00\x00\x00\x00\xf0?\x00\x00\x00\x00\x00\x00\x00\x00\x00\x00\x00\x00\x00\x00\x00\x00\x00\x00\x00\x00\x00\x00\x00\x00\x00\x00\x00\x00\x00\x00\xf0?'
p4433
tp4434
bsg50
g7
sg51
(dp4435
sbsg2619
I00
sg2620
g2621
sg2622
Nsg2135
g2623
sg139
g2624
sg1159
g3731
sbsg32
Nsg2634
g2635
sg134
I01
sg2636
g2637
sg137
Nsg2638
F4.0
sg130
I00
sg2639
g1223
sg141
g3813
sg2641
g3814
sg144
I0
sg2643
g2644
sg2645
I0
sg2646
I5
sg145
I01
sg147
Nsg2647
g2580
sg2648
I00
sg148
g1133
sg2649
I00
sg2650
F2.01
sg42
Nsg2137
Nsg2651
(g4324
tp4436
sg132
Nsg131
F1.0
sg33
Nsg1159
g1228
sbsg148
Nsg2732
g2475
sg2733
g3816
sg42
Nsg2247
g2248
sg33
Nsbasg3355
I01
sg2145
g0
(g2146
g2
Ntp4437
Rp4438
sg137
Nsg130
I00
sg3358
I01
sg57
Nsg144
I0
sg3359
I6
sg3360
Nsg145
I00
sg147
Nsg3361
g3640
sg148
Nsg3363
Vleft
p4439
sg2650
F2.5
sg42
Nsg2137
Nsg2646
I15
sg3365
(lp4440
g0
(g3670
g2
Ntp4441
Rp4442
(dp4443
g6
g7
sg39
F0.5
sg9
g4
sg2527
I01
sg8
I01
sg10
Nsg144
I0
sg41
Nsg2528
F4.0
sg2529
g2248
sg2530
I00
sg2230
F2.0
sg17
g18
sg2531
g2532
sg2483
g0
(g2214
g2
Ntp4444
Rp4445
(dp4446
g6
g7
sg8
I01
sg9
g4
sg10
Nsg2218
g0
(g2219
g2
Ntp4447
Rp4448
(dp4449
g2223
(lp4450
g2225
asg2226
Nsg2227
g2228
sg2229
g2228
sg2230
g2475
sg2232
I400
sg2233
g2228
sbsg41
Nsg17
g18
sg2234
Nsg20
I01
sg23
Nsg55
I0
sg56
I0
sg24
Nsg11
Nsg27
I00
sg28
I00
sg29
(dp4451
sg2236
Nsg31
I00
sg2138
Nsg132
Nsg2137
Nsg2237
Nsg32
Nsg137
Nsg130
I01
sg2238
g3685
sg2240
V
p4452
sg2242
Nsg57
Nsg144
I0
sg2243
Nsg145
I01
sg147
Nsg2244
F1.2
sg148
g1401
sg2245
Nsg2246
I00
sg42
Nsg2247
g2248
sg2249
g3687
sg33
Nsbsg20
I01
sg23
Nsg2547
I00
sg24
Nsg11
Nsg2548
I01
sg27
I00
sg28
I00
sg29
(dp4453
sg2550
(I1
I0
tp4454
sg31
I00
sg2552
I2
sg2138
g2192
sg2553
I01
sg132
g383
sg2137
Nsg2554
g4445
sg2555
g0
(g2214
g2
Ntp4455
Rp4456
(dp4457
g6
g7
sg8
I01
sg9
g4
sg10
Nsg2218
g0
(g2219
g2
Ntp4458
Rp4459
(dp4460
g2223
(lp4461
g2225
asg2226
Nsg2227
g2228
sg2229
g2228
sg2230
g2475
sg2232
I400
sg2233
g2228
sbsg41
Nsg17
g18
sg2234
Nsg20
I01
sg23
Nsg55
I0
sg56
I1
sg24
Nsg11
Nsg27
I00
sg28
I00
sg29
(dp4462
sg2236
Nsg31
I00
sg2138
Nsg132
Nsg2137
Nsg2237
Nsg32
Nsg137
Nsg130
I01
sg2238
g3698
sg2240
V
p4463
sg2242
Nsg57
Nsg144
I0
sg2243
Nsg145
I01
sg147
Nsg2244
F1.2
sg148
g1410
sg2245
Nsg2246
I00
sg42
Nsg2247
g2248
sg2249
g3700
sg33
Nsbsg137
Nsg2567
I0
sg130
I01
sg57
Nsg2568
F4.0
sg2569
g0
(g2570
g2
Ntp4464
Rp4465
(dp4466
g6
g7
sg8
I01
sg2574
g2575
sg9
g4
sg2576
g2577
sg2578
Nsg10
Nsg41
Nsg17
g18
sg2579
g2580
sg20
I01
sg2581
Nsg23
Nsg55
Nsg56
Nsg57
Nsg24
Nsg11
Nsg27
I00
sg2594
Nsg28
I00
sg29
(dp4467
sg2596
Nsg31
I00
sg2597
I00
sg2138
Nsg1141
Nsg2598
F0.5
sg2599
g2600
sg2601
Nsg2247
g2248
sg2602
g0
(g2603
g2
Ntp4468
Rp4469
(dp4470
g2602
I1
sg2607
Nsg2608
F1.0
sg148
g0
(g117
g2
Ntp4471
Rp4472
(dp4473
g48
I2
sg49
Nsg70
g71
(g72
(I0
tp4474
g74
tp4475
Rp4476
(I1
(I3
I3
tp4477
g81
I00
S'\x00\x00\x00\x00\x00\x00\xf0?\x00\x00\x00\x00\x00\x00\x00\x00\x00\x00\x00\x00\x00\x00\x00\x00\x00\x00\x00\x00\x00\x00\x00\x00\x00\x00\x00\x00\x00\x00\xf0?\x00\x00\x00\x00\x00\x00\x00\x00\x00\x00\x00\x00\x00\x00\x00\x00\x00\x00\x00\x00\x00\x00\x00\x00\x00\x00\x00\x00\x00\x00\xf0?'
p4478
tp4479
bsg50
g7
sg51
(dp4480
sbsg2619
I00
sg2620
g2621
sg2622
Nsg2135
g2623
sg139
g2624
sg1159
g3731
sbsg32
Nsg2634
g2635
sg134
I01
sg2636
g2637
sg137
Nsg2638
F2.0
sg130
I01
sg2639
Nsg141
g3739
sg2641
g3740
sg144
I0
sg2643
g2644
sg2645
I0
sg2646
I5
sg145
I01
sg147
Nsg2647
g2580
sg2648
I01
sg148
g1133
sg2649
I01
sg2650
I2
sg42
Nsg2137
Nsg2651
(I0
tp4481
sg132
Nsg131
F1.0
sg33
Nsg1159
Nsbsg145
I00
sg2653
g0
(g2570
g2
Ntp4482
Rp4483
(dp4484
g6
g7
sg8
I01
sg2574
g2575
sg9
g4
sg2576
g2577
sg2578
Nsg10
Nsg41
Nsg17
g18
sg2579
g2580
sg20
I01
sg2581
Nsg23
Nsg55
g71
(g72
(I0
tp4485
g74
tp4486
Rp4487
(I1
(I2
tp4488
g81
I00
S'\x00\x00\x00\x00\x00\x00\x00\x00\x00\x00\x00\x00\x00\x00\x00\x00'
p4489
tp4490
bsg56
g71
(g72
(I0
tp4491
g74
tp4492
Rp4493
(I1
(I2
tp4494
g81
I00
S'\x00\x00\x00\x00\x00\x00\x00\x00\x00\x00\x00\x00\x00\x00\xf0?'
p4495
tp4496
bsg57
Nsg24
Nsg11
Nsg27
I00
sg2594
Nsg28
I00
sg29
(dp4497
sg2596
Nsg31
I00
sg2597
I00
sg2138
Nsg1141
Nsg2598
F0.5
sg2599
g2600
sg2601
Nsg2247
g2248
sg2602
g0
(g2603
g2
Ntp4498
Rp4499
(dp4500
g2602
g2673
sg2607
Nsg2608
Nsg148
g0
(g44
g2
Ntp4501
Rp4502
(dp4503
g48
I1
sg49
Nsg50
g7
sg51
(dp4504
sbsg2619
I00
sg2620
g2621
sg2622
Nsg2135
g2623
sg139
g2624
sg1159
g0
(g1142
g2
Ntp4505
Rp4506
(dp4507
g1146
I00
sg1147
Nsg1148
g71
(g72
(I0
tp4508
g74
tp4509
Rp4510
(I1
(I0
I2
tp4511
g81
I00
g2685
tp4512
bsg1155
I00
sg1156
F0.1111111111111111
sg1157
I1
sg1158
I00
sbsbsg32
Nsg2634
g2635
sg134
I01
sg2636
g2637
sg137
Nsg2638
F0.0
sg130
I01
sg2639
g71
(g72
(I0
tp4513
g74
tp4514
Rp4515
(I1
(I2
I2
tp4516
g81
I00
S'\x00\x00\x00\x00\x00\x00\x00\x00\x00\x00\x00\x00\x00\x00\x00\x00\x00\x00\x00\x00\x00\x00\xf0?\x00\x00\x00\x00\x00\x00\x00\x00'
p4517
tp4518
bsg141
g2693
sg2641
g3779
sg144
I0
sg2643
g2644
sg2645
I0
sg2646
I5
sg145
I01
sg147
F1.0
sg2647
g2580
sg2648
I00
sg148
g1133
sg2649
I00
sg42
Nsg2137
Nsg2651
g3780
sg132
g610
sg131
F0.5
sg33
Nsg1159
g0
(g1142
g2
Ntp4519
Rp4520
(dp4521
g1146
I00
sg1147
Nsg1148
g4515
sg1155
I00
sg1156
F0.1111111111111111
sg1157
I180
sg1158
I00
sbsbsg147
Nsg32
Nsg2699
g0
(g2570
g2
Ntp4522
Rp4523
(dp4524
g6
g7
sg8
I01
sg2574
g2575
sg9
g4
sg2576
g2577
sg2578
Nsg10
Nsg41
Nsg17
g18
sg2579
g2580
sg20
I01
sg2581
Nsg23
Nsg55
Nsg56
Nsg57
Nsg24
Nsg11
Nsg27
I00
sg2594
Nsg28
I00
sg29
(dp4525
sg2596
Nsg31
I00
sg2597
I00
sg2138
Nsg1141
Nsg2598
F0.5
sg2599
g2600
sg2601
Nsg2247
g2248
sg2602
g0
(g2603
g2
Ntp4526
Rp4527
(dp4528
g2602
I0
sg2607
Nsg2608
F1.0
sg148
g0
(g117
g2
Ntp4529
Rp4530
(dp4531
g48
I2
sg49
Nsg70
g71
(g72
(I0
tp4532
g74
tp4533
Rp4534
(I1
(I3
I3
tp4535
g81
I00
S'\x00\x00\x00\x00\x00\x00\xf0\xbf\x00\x00\x00\x00\x00\x00\x00\x00\x00\x00\x00\x00\x00\x00\x00\x00\x00\x00\x00\x00\x00\x00\x00\x00\x00\x00\x00\x00\x00\x00\xf0?\x00\x00\x00\x00\x00\x00\x00\x00\x00\x00\x00\x00\x00\x00\x00\x00\x00\x00\x00\x00\x00\x00\x00\x00\x00\x00\x00\x00\x00\x00\xf0?'
p4536
tp4537
bsg50
g7
sg51
(dp4538
sbsg2619
I00
sg2620
g2621
sg2622
Nsg2135
g2623
sg139
g2624
sg1159
g3731
sbsg32
Nsg2634
g2635
sg134
I01
sg2636
g2637
sg137
Nsg2638
F2.0
sg130
I01
sg2639
Nsg141
g3813
sg2641
g3814
sg144
I0
sg2643
g2644
sg2645
I0
sg2646
I5
sg145
I01
sg147
Nsg2647
g2580
sg2648
I01
sg148
g1133
sg2649
I01
sg2650
I2
sg42
Nsg2137
Nsg2651
(I0
tp4539
sg132
Nsg131
F1.0
sg33
Nsg1159
Nsbsg148
Nsg2732
g2475
sg2733
g3816
sg42
Nsg2247
g2248
sg33
Nsbag0
(g3670
g2
Ntp4540
Rp4541
(dp4542
g6
g7
sg39
F0.5
sg9
g4
sg2527
I01
sg8
I01
sg10
Nsg144
I0
sg41
Nsg2528
F4.0
sg2529
g2248
sg2530
I00
sg2230
F2.0
sg17
g18
sg2531
g2532
sg2483
g0
(g2214
g2
Ntp4543
Rp4544
(dp4545
g6
g7
sg8
I01
sg9
g4
sg10
Nsg2218
g0
(g2219
g2
Ntp4546
Rp4547
(dp4548
g2223
(lp4549
g2225
asg2226
Nsg2227
g2228
sg2229
g2228
sg2230
g2475
sg2232
I400
sg2233
g2228
sbsg41
Nsg17
g18
sg2234
Nsg20
I01
sg23
Nsg55
I0
sg56
I0
sg24
Nsg11
Nsg27
I00
sg28
I00
sg29
(dp4550
sg2236
Nsg31
I00
sg2138
Nsg132
Nsg2137
Nsg2237
Nsg32
Nsg137
Nsg130
I01
sg2238
g3685
sg2240
V
p4551
sg2242
Nsg57
Nsg144
I0
sg2243
Nsg145
I01
sg147
Nsg2244
F1.2
sg148
g1169
sg2245
Nsg2246
I00
sg42
Nsg2247
g2248
sg2249
g3687
sg33
Nsbsg20
I01
sg23
Nsg2547
I00
sg24
Nsg11
Nsg2548
I01
sg27
I00
sg28
I00
sg29
(dp4552
sg2550
(I1
I0
tp4553
sg31
I00
sg2552
I2
sg2138
g2192
sg2553
I01
sg132
g853
sg2137
Nsg2554
g4544
sg2555
g0
(g2214
g2
Ntp4554
Rp4555
(dp4556
g6
g7
sg8
I01
sg9
g4
sg10
Nsg2218
g0
(g2219
g2
Ntp4557
Rp4558
(dp4559
g2223
(lp4560
g2225
asg2226
Nsg2227
g2228
sg2229
g2228
sg2230
g2475
sg2232
I400
sg2233
g2228
sbsg41
Nsg17
g18
sg2234
Nsg20
I01
sg23
Nsg55
I0
sg56
I1
sg24
Nsg11
Nsg27
I00
sg28
I00
sg29
(dp4561
sg2236
Nsg31
I00
sg2138
Nsg132
Nsg2137
Nsg2237
Nsg32
Nsg137
Nsg130
I01
sg2238
g3698
sg2240
V
p4562
sg2242
Nsg57
Nsg144
I0
sg2243
Nsg145
I01
sg147
Nsg2244
F1.2
sg148
g1307
sg2245
Nsg2246
I00
sg42
Nsg2247
g2248
sg2249
g3700
sg33
Nsbsg137
Nsg2567
I0
sg130
I01
sg57
Nsg2568
F4.0
sg2569
g0
(g2570
g2
Ntp4563
Rp4564
(dp4565
g6
g7
sg8
I01
sg2574
g2575
sg9
g4
sg2576
g2577
sg2578
Nsg10
Nsg41
Nsg17
g18
sg2579
g2580
sg20
I01
sg2581
Nsg23
Nsg55
Nsg56
Nsg57
Nsg24
Nsg11
Nsg27
I00
sg2594
Nsg28
I00
sg29
(dp4566
sg2596
Nsg31
I00
sg2597
I00
sg2138
Nsg1141
Nsg2598
F0.5
sg2599
g2600
sg2601
Nsg2247
g2248
sg2602
g0
(g2603
g2
Ntp4567
Rp4568
(dp4569
g2602
I1
sg2607
Nsg2608
F1.0
sg148
g0
(g117
g2
Ntp4570
Rp4571
(dp4572
g48
I2
sg49
Nsg70
g71
(g72
(I0
tp4573
g74
tp4574
Rp4575
(I1
(I3
I3
tp4576
g81
I00
S'\x00\x00\x00\x00\x00\x00\xf0?\x00\x00\x00\x00\x00\x00\x00\x00\x00\x00\x00\x00\x00\x00\x00\x00\x00\x00\x00\x00\x00\x00\x00\x00\x00\x00\x00\x00\x00\x00\xf0?\x00\x00\x00\x00\x00\x00\x00\x00\x00\x00\x00\x00\x00\x00\x00\x00\x00\x00\x00\x00\x00\x00\x00\x00\x00\x00\x00\x00\x00\x00\xf0?'
p4577
tp4578
bsg50
g7
sg51
(dp4579
sbsg2619
I00
sg2620
g2621
sg2622
Nsg2135
g2623
sg139
g2624
sg1159
g3731
sbsg32
Nsg2634
g2635
sg134
I01
sg2636
g2637
sg137
Nsg2638
F2.0
sg130
I01
sg2639
Nsg141
g3739
sg2641
g3740
sg144
I0
sg2643
g2644
sg2645
I0
sg2646
I5
sg145
I01
sg147
Nsg2647
g2580
sg2648
I01
sg148
g1133
sg2649
I01
sg2650
I2
sg42
Nsg2137
Nsg2651
(I0
tp4580
sg132
Nsg131
F1.0
sg33
Nsg1159
Nsbsg145
I00
sg2653
g0
(g2570
g2
Ntp4581
Rp4582
(dp4583
g6
g7
sg8
I01
sg2574
g2575
sg9
g4
sg2576
g2577
sg2578
Nsg10
Nsg41
Nsg17
g18
sg2579
g2580
sg20
I01
sg2581
Nsg23
Nsg55
g71
(g72
(I0
tp4584
g74
tp4585
Rp4586
(I1
(I2
tp4587
g81
I00
S'\x00\x00\x00\x00\x00\x00\x00\x00\x00\x00\x00\x00\x00\x00\x00\x00'
p4588
tp4589
bsg56
g71
(g72
(I0
tp4590
g74
tp4591
Rp4592
(I1
(I2
tp4593
g81
I00
S'\x00\x00\x00\x00\x00\x00\x00\x00\x00\x00\x00\x00\x00\x00\xf0?'
p4594
tp4595
bsg57
Nsg24
Nsg11
Nsg27
I00
sg2594
Nsg28
I00
sg29
(dp4596
sg2596
Nsg31
I00
sg2597
I00
sg2138
Nsg1141
Nsg2598
F0.5
sg2599
g2600
sg2601
Nsg2247
g2248
sg2602
g0
(g2603
g2
Ntp4597
Rp4598
(dp4599
g2602
g2673
sg2607
Nsg2608
Nsg148
g0
(g44
g2
Ntp4600
Rp4601
(dp4602
g48
I1
sg49
Nsg50
g7
sg51
(dp4603
sbsg2619
I00
sg2620
g2621
sg2622
Nsg2135
g2623
sg139
g2624
sg1159
g0
(g1142
g2
Ntp4604
Rp4605
(dp4606
g1146
I00
sg1147
Nsg1148
g71
(g72
(I0
tp4607
g74
tp4608
Rp4609
(I1
(I0
I2
tp4610
g81
I00
g2685
tp4611
bsg1155
I00
sg1156
F0.1111111111111111
sg1157
I1
sg1158
I00
sbsbsg32
Nsg2634
g2635
sg134
I01
sg2636
g2637
sg137
Nsg2638
F0.0
sg130
I01
sg2639
g71
(g72
(I0
tp4612
g74
tp4613
Rp4614
(I1
(I2
I2
tp4615
g81
I00
S'\x00\x00\x00\x00\x00\x00\x00\x00\x00\x00\x00\x00\x00\x00\x00\x00\x00\x00\x00\x00\x00\x00\xf0?\x00\x00\x00\x00\x00\x00\x00\x00'
p4616
tp4617
bsg141
g2693
sg2641
g3779
sg144
I0
sg2643
g2644
sg2645
I0
sg2646
I5
sg145
I01
sg147
F1.0
sg2647
g2580
sg2648
I00
sg148
g1133
sg2649
I00
sg42
Nsg2137
Nsg2651
g3780
sg132
g1747
sg131
F0.5
sg33
Nsg1159
g0
(g1142
g2
Ntp4618
Rp4619
(dp4620
g1146
I00
sg1147
Nsg1148
g4614
sg1155
I00
sg1156
F0.1111111111111111
sg1157
I180
sg1158
I00
sbsbsg147
Nsg32
Nsg2699
g0
(g2570
g2
Ntp4621
Rp4622
(dp4623
g6
g7
sg8
I01
sg2574
g2575
sg9
g4
sg2576
g2577
sg2578
Nsg10
Nsg41
Nsg17
g18
sg2579
g2580
sg20
I01
sg2581
Nsg23
Nsg55
Nsg56
Nsg57
Nsg24
Nsg11
Nsg27
I00
sg2594
Nsg28
I00
sg29
(dp4624
sg2596
Nsg31
I00
sg2597
I00
sg2138
Nsg1141
Nsg2598
F0.5
sg2599
g2600
sg2601
Nsg2247
g2248
sg2602
g0
(g2603
g2
Ntp4625
Rp4626
(dp4627
g2602
I0
sg2607
Nsg2608
F1.0
sg148
g0
(g117
g2
Ntp4628
Rp4629
(dp4630
g48
I2
sg49
Nsg70
g71
(g72
(I0
tp4631
g74
tp4632
Rp4633
(I1
(I3
I3
tp4634
g81
I00
S'\x00\x00\x00\x00\x00\x00\xf0\xbf\x00\x00\x00\x00\x00\x00\x00\x00\x00\x00\x00\x00\x00\x00\x00\x00\x00\x00\x00\x00\x00\x00\x00\x00\x00\x00\x00\x00\x00\x00\xf0?\x00\x00\x00\x00\x00\x00\x00\x00\x00\x00\x00\x00\x00\x00\x00\x00\x00\x00\x00\x00\x00\x00\x00\x00\x00\x00\x00\x00\x00\x00\xf0?'
p4635
tp4636
bsg50
g7
sg51
(dp4637
sbsg2619
I00
sg2620
g2621
sg2622
Nsg2135
g2623
sg139
g2624
sg1159
g3731
sbsg32
Nsg2634
g2635
sg134
I01
sg2636
g2637
sg137
Nsg2638
F2.0
sg130
I01
sg2639
Nsg141
g3813
sg2641
g3814
sg144
I0
sg2643
g2644
sg2645
I0
sg2646
I5
sg145
I01
sg147
Nsg2647
g2580
sg2648
I01
sg148
g1133
sg2649
I01
sg2650
I2
sg42
Nsg2137
Nsg2651
(I0
tp4638
sg132
Nsg131
F1.0
sg33
Nsg1159
Nsbsg148
Nsg2732
g2475
sg2733
g3816
sg42
Nsg2247
g2248
sg33
Nsbasg33
Nsg3565
(dp4639
sg3567
I01
sbsS'_axisbelow'
p4640
I00
sg8
I01
sS'lines'
p4641
(lp4642
sS'_ycid'
p4643
I1
sS'spines'
p4644
(dp4645
Vtop
p4646
g0
(cmatplotlib.spines
Spine
p4647
g2
Ntp4648
Rp4649
(dp4650
g6
g7
sg2466
I00
sg40
I01
sg9
g4
sS'_bounds'
p4651
Nsg8
I01
sg10
Nsg41
Nsg17
g18
sg42
Nsg20
I01
sg2437
g2418
sg43
g0
(g44
g2
Ntp4652
Rp4653
(dp4654
g48
I1
sg49
Nsg50
g7
sg51
(dp4655
sbsg53
(F0.0
F0.0
F0.0
F1.0
tp4656
sg23
Nsg57
Nsg24
Nsg11
Nsg27
I00
sg28
I00
sg29
(dp4657
sg2372
(Voutward
p4658
F0.0
tp4659
sg31
I00
sg129
Nsg130
I00
sg131
F1.0
sS'_patch_type'
p4660
Vline
p4661
sg32
Nsg134
I01
sg135
Vnone
p4662
sg137
Nsg138
g2309
sg139
g140
sS'_patch_transform'
p4663
g0
(g44
g2
Ntp4664
Rp4665
(dp4666
g48
I1
sg49
Nsg50
g7
sg51
(dp4667
sbsg141
g142
sg143
g2248
sg144
I0
sS'_spine_transform'
p4668
(Videntity
p4669
g0
(g44
g2
Ntp4670
Rp4671
(dp4672
g48
I1
sg49
Nsg50
g7
sg51
(dp4673
sbtp4674
sg145
I01
sg147
NsS'spine_type'
p4675
g4646
sg148
g214
sg132
Nsg2650
F2.5
sg2135
Vprojecting
p4676
sg2137
Nsg2138
g2192
sg33
Nsg1159
g0
(g1142
g2
Ntp4677
Rp4678
(dp4679
g1146
I00
sg1147
Nsg1148
g71
(g72
(I0
tp4680
g74
tp4681
Rp4682
(I1
(I2
I2
tp4683
g81
I00
S'\x00\x00\x00\x00\x00\x00\x00\x00\x00\x00\x00\x00\x00\x00\xf0?\x00\x00\x00\x00\x00\x00\xf0?\x00\x00\x00\x00\x00\x00\xf0?'
p4684
tp4685
bsg1155
I00
sg1156
F0.1111111111111111
sg1157
I1
sg1158
I00
sbsbsVright
p4686
g0
(g4647
g2
Ntp4687
Rp4688
(dp4689
g6
g7
sg2466
I00
sg40
I01
sg9
g4
sg4651
Nsg8
I01
sg10
Nsg41
Nsg17
g18
sg42
Nsg20
I01
sg2437
g3606
sg43
g0
(g44
g2
Ntp4690
Rp4691
(dp4692
g48
I1
sg49
Nsg50
g7
sg51
(dp4693
sbsg53
(F0.0
F0.0
F0.0
F1.0
tp4694
sg23
Nsg57
Nsg24
Nsg11
Nsg27
I00
sg28
I00
sg29
(dp4695
sg2372
g4659
sg31
I00
sg129
Nsg130
I00
sg131
F1.0
sg4660
g4661
sg32
Nsg134
I01
sg135
g4662
sg137
Nsg138
g2309
sg139
g140
sg4663
g0
(g44
g2
Ntp4696
Rp4697
(dp4698
g48
I1
sg49
Nsg50
g7
sg51
(dp4699
sbsg141
g142
sg143
g2248
sg144
I0
sg4668
(g4669
g0
(g44
g2
Ntp4700
Rp4701
(dp4702
g48
I1
sg49
Nsg50
g7
sg51
(dp4703
sbtp4704
sg145
I01
sg147
Nsg4675
g4686
sg148
g1133
sg132
Nsg2650
F2.5
sg2135
g4676
sg2137
Nsg2138
g2192
sg33
Nsg1159
g0
(g1142
g2
Ntp4705
Rp4706
(dp4707
g1146
I00
sg1147
Nsg1148
g71
(g72
(I0
tp4708
g74
tp4709
Rp4710
(I1
(I2
I2
tp4711
g81
I00
S'\x00\x00\x00\x00\x00\x00\xf0?\x00\x00\x00\x00\x00\x00\x00\x00\x00\x00\x00\x00\x00\x00\xf0?\x00\x00\x00\x00\x00\x00\xf0?'
p4712
tp4713
bsg1155
I00
sg1156
F0.1111111111111111
sg1157
I1
sg1158
I00
sbsbsVbottom
p4714
g0
(g4647
g2
Ntp4715
Rp4716
(dp4717
g6
g7
sg2466
I00
sg40
I01
sg9
g4
sg4651
Nsg8
I01
sg10
Nsg41
Nsg17
g18
sg42
Nsg20
I01
sg2437
g2418
sg43
g0
(g44
g2
Ntp4718
Rp4719
(dp4720
g48
I1
sg49
Nsg50
g7
sg51
(dp4721
sbsg53
(F0.0
F0.0
F0.0
F1.0
tp4722
sg23
Nsg57
Nsg24
Nsg11
Nsg27
I00
sg28
I00
sg29
(dp4723
sg2372
g4659
sg31
I00
sg129
Nsg130
I00
sg131
F1.0
sg4660
g4661
sg32
Nsg134
I01
sg135
g4662
sg137
Nsg138
g2309
sg139
g140
sg4663
g0
(g44
g2
Ntp4724
Rp4725
(dp4726
g48
I1
sg49
Nsg50
g7
sg51
(dp4727
sbsg141
g142
sg143
g2248
sg144
I0
sg4668
(g4669
g0
(g44
g2
Ntp4728
Rp4729
(dp4730
g48
I1
sg49
Nsg50
g7
sg51
(dp4731
sbtp4732
sg145
I01
sg147
Nsg4675
g4714
sg148
g214
sg132
Nsg2650
F2.5
sg2135
g4676
sg2137
Nsg2138
g2192
sg33
Nsg1159
g0
(g1142
g2
Ntp4733
Rp4734
(dp4735
g1146
I00
sg1147
Nsg1148
g71
(g72
(I0
tp4736
g74
tp4737
Rp4738
(I1
(I2
I2
tp4739
g81
I00
S'\x00\x00\x00\x00\x00\x00\x00\x00\x00\x00\x00\x00\x00\x00\x00\x00\x00\x00\x00\x00\x00\x00\xf0?\x00\x00\x00\x00\x00\x00\x00\x00'
p4740
tp4741
bsg1155
I00
sg1156
F0.1111111111111111
sg1157
I1
sg1158
I00
sbsbsVleft
p4742
g0
(g4647
g2
Ntp4743
Rp4744
(dp4745
g6
g7
sg2466
I00
sg40
I01
sg9
g4
sg4651
Nsg8
I01
sg10
Nsg41
Nsg17
g18
sg42
Nsg20
I01
sg2437
g3606
sg43
g0
(g44
g2
Ntp4746
Rp4747
(dp4748
g48
I1
sg49
Nsg50
g7
sg51
(dp4749
sbsg53
(F0.0
F0.0
F0.0
F1.0
tp4750
sg23
Nsg57
Nsg24
Nsg11
Nsg27
I00
sg28
I00
sg29
(dp4751
sg2372
g4659
sg31
I00
sg129
Nsg130
I00
sg131
F1.0
sg4660
g4661
sg32
Nsg134
I01
sg135
g4662
sg137
Nsg138
g2309
sg139
g140
sg4663
g0
(g44
g2
Ntp4752
Rp4753
(dp4754
g48
I1
sg49
Nsg50
g7
sg51
(dp4755
sbsg141
g142
sg143
g2248
sg144
I0
sg4668
(g4669
g0
(g44
g2
Ntp4756
Rp4757
(dp4758
g48
I1
sg49
Nsg50
g7
sg51
(dp4759
sbtp4760
sg145
I01
sg147
Nsg4675
g4742
sg148
g1133
sg132
Nsg2650
F2.5
sg2135
g4676
sg2137
Nsg2138
g2192
sg33
Nsg1159
g0
(g1142
g2
Ntp4761
Rp4762
(dp4763
g1146
I00
sg1147
Nsg1148
g71
(g72
(I0
tp4764
g74
tp4765
Rp4766
(I1
(I2
I2
tp4767
g81
I00
S'\x00\x00\x00\x00\x00\x00\x00\x00\x00\x00\x00\x00\x00\x00\x00\x00\x00\x00\x00\x00\x00\x00\x00\x00\x00\x00\x00\x00\x00\x00\xf0?'
p4768
tp4769
bsg1155
I00
sg1156
F0.1111111111111111
sg1157
I1
sg1158
I00
sbsbssg42
Nsg2137
NsS'_axisbg'
p4770
g2357
sbtp4771
tp4772
asS'_ind'
p4773
I1
sS'_pos'
p4774
I0
sbsg148
Nsg4641
(lp4775
sg2301
g37
sS'subplotpars'
p4776
g0
(cmatplotlib.figure
SubplotParams
p4777
g2
Ntp4778
Rp4779
(dp4780
g2176
F0.9
sg2178
F0.1
sg2179
F0.9
sg2180
F0.2
sS'validate'
p4781
I01
sg2182
F0.2
sg2184
F0.125
sbsg42
Nsg2137
NsS'bbox_inches'
p4782
g164
sS'transFigure'
p4783
g150
sS'_dpi'
p4784
F80.0
sb.